ARM GAS  C:\Users\lucas\AppData\Local\Temp\ccoY5NGo.s 			page 1


   1              		.syntax unified
   2              		.cpu cortex-m3
   3              		.fpu softvfp
   4              		.eabi_attribute 20, 1
   5              		.eabi_attribute 21, 1
   6              		.eabi_attribute 23, 3
   7              		.eabi_attribute 24, 1
   8              		.eabi_attribute 25, 1
   9              		.eabi_attribute 26, 1
  10              		.eabi_attribute 30, 1
  11              		.eabi_attribute 34, 1
  12              		.eabi_attribute 18, 4
  13              		.thumb
  14              		.syntax unified
  15              		.file	"main.c"
  16              		.text
  17              	.Ltext0:
  18              		.cfi_sections	.debug_frame
  19              		.section	.text.matchInterrupt_handler,"ax",%progbits
  20              		.align	2
  21              		.global	matchInterrupt_handler
  22              		.thumb
  23              		.thumb_func
  24              		.type	matchInterrupt_handler, %function
  25              	matchInterrupt_handler:
  26              	.LFB63:
  27              		.file 1 "main.c"
   1:main.c        **** /* ========================================
   2:main.c        ****  *
   3:main.c        ****  * Copyright YOUR COMPANY, THE YEAR
   4:main.c        ****  * All Rights Reserved
   5:main.c        ****  * UNPUBLISHED, LICENSED SOFTWARE.
   6:main.c        ****  *
   7:main.c        ****  * CONFIDENTIAL AND PROPRIETARY INFORMATION
   8:main.c        ****  * WHICH IS THE PROPERTY OF your company.
   9:main.c        ****  *
  10:main.c        ****  * ========================================
  11:main.c        **** */
  12:main.c        **** #include "project.h"
  13:main.c        **** 
  14:main.c        **** volatile uint8 preCounter_samplerArray[3];
  15:main.c        **** volatile uint8 Counter_samplerArray[3];
  16:main.c        **** 
  17:main.c        **** // -----------------------------------------------------------------------------
  18:main.c        **** //matchCounterControl_Reg_1
  19:main.c        **** #define OFF_COMMAND 0x00
  20:main.c        **** #define ENABLE_COMMAND 0b00000110  
  21:main.c        **** #define RESET_COMMAND  0b00000001
  22:main.c        **** #define FULL_COMMAND  0xff
  23:main.c        **** // -----------------------------------------------------------------------------
  24:main.c        **** // State Machine ---------------------------------------------------------------
  25:main.c        **** void exit_state_process();//0
  26:main.c        **** void start_state_process();//1
  27:main.c        **** void standby_state_process();//2
  28:main.c        **** void scanOn_state_process();//3
  29:main.c        **** void scanOff_state_process();//4
  30:main.c        **** void sampler_state_process();//5
ARM GAS  C:\Users\lucas\AppData\Local\Temp\ccoY5NGo.s 			page 2


  31:main.c        **** void setRegs_state_process();//6
  32:main.c        **** 
  33:main.c        **** //Estado comum a todas as máquinas de estado:
  34:main.c        **** #define EXIT_STATE 0
  35:main.c        **** #define START_STATE 1
  36:main.c        **** #define STANDBY_STATE 2
  37:main.c        **** #define SCANON_STATE 3
  38:main.c        **** #define SCANOFF_STATE 4
  39:main.c        **** #define SAMPLER_STATE 5
  40:main.c        **** #define SETREGS_STATE 6
  41:main.c        **** 
  42:main.c        **** void (*main_state_table[])()=
  43:main.c        **** {
  44:main.c        ****     exit_state_process,//0
  45:main.c        ****     start_state_process,//1
  46:main.c        ****     standby_state_process,//2
  47:main.c        ****     scanOn_state_process,//3
  48:main.c        ****     scanOff_state_process,//4
  49:main.c        ****     sampler_state_process,//5
  50:main.c        ****     setRegs_state_process//6
  51:main.c        **** };
  52:main.c        **** 
  53:main.c        **** volatile int main_state;
  54:main.c        **** 
  55:main.c        **** CY_ISR(matchInterrupt_handler)
  56:main.c        **** {	
  28              		.loc 1 56 0
  29              		.cfi_startproc
  30              		@ args = 0, pretend = 0, frame = 0
  31              		@ frame_needed = 0, uses_anonymous_args = 0
  32              		@ link register save eliminated.
  57:main.c        ****     //Control_Reg_1_Write(RESET_COMMAND);
  58:main.c        ****     main_state =  SAMPLER_STATE;
  33              		.loc 1 58 0
  34 0000 0522     		movs	r2, #5
  35 0002 014B     		ldr	r3, .L2
  36 0004 1A60     		str	r2, [r3]
  37 0006 7047     		bx	lr
  38              	.L3:
  39              		.align	2
  40              	.L2:
  41 0008 00000000 		.word	main_state
  42              		.cfi_endproc
  43              	.LFE63:
  44              		.size	matchInterrupt_handler, .-matchInterrupt_handler
  45              		.section	.text.standby_state_process,"ax",%progbits
  46              		.align	2
  47              		.global	standby_state_process
  48              		.thumb
  49              		.thumb_func
  50              		.type	standby_state_process, %function
  51              	standby_state_process:
  52              	.LFB68:
  59:main.c        ****     //isr_match_ClearPending();
  60:main.c        **** }
  61:main.c        **** 
  62:main.c        **** CY_ISR(RxInterrupt_1)
ARM GAS  C:\Users\lucas\AppData\Local\Temp\ccoY5NGo.s 			page 3


  63:main.c        **** {	
  64:main.c        ****     main_state = UART_1_GetChar();
  65:main.c        **** }
  66:main.c        **** 
  67:main.c        **** int main(void)
  68:main.c        **** {
  69:main.c        ****     CyGlobalIntEnable; /* Enable global interrupts. */
  70:main.c        **** 
  71:main.c        ****     UART_1_Start();
  72:main.c        ****     isr_Rx_1_StartEx(RxInterrupt_1);
  73:main.c        ****     
  74:main.c        ****     /* Place your initialization/startup code here (e.g. MyInst_Start()) */
  75:main.c        ****     
  76:main.c        ****     isr_match_StartEx(matchInterrupt_handler);
  77:main.c        ****     isr_match_Disable();
  78:main.c        ****     
  79:main.c        ****     Control_Reg_1_Write(OFF_COMMAND);
  80:main.c        ****     
  81:main.c        ****     PWM_1_Start();
  82:main.c        ****     
  83:main.c        ****     while(1)
  84:main.c        ****     {
  85:main.c        ****         main_state = START_STATE;
  86:main.c        ****         while(main_state)
  87:main.c        ****         {       
  88:main.c        ****             main_state_table[main_state]();
  89:main.c        ****         }
  90:main.c        ****     }
  91:main.c        **** }
  92:main.c        **** 
  93:main.c        **** void exit_state_process()//0
  94:main.c        **** {
  95:main.c        ****     isr_match_Disable();
  96:main.c        ****     
  97:main.c        ****     Control_Reg_1_Write(OFF_COMMAND);
  98:main.c        ****     Control_Reg_1_Write(RESET_COMMAND|ENABLE_COMMAND);
  99:main.c        ****     Control_Reg_1_Write(OFF_COMMAND);
 100:main.c        **** }
 101:main.c        **** 
 102:main.c        **** void start_state_process()//1
 103:main.c        **** {
 104:main.c        ****     main_state = STANDBY_STATE;
 105:main.c        ****     
 106:main.c        ****     preCount_th_Reg_1_Write(255);
 107:main.c        ****     preCount_th_Reg_2_Write(255);
 108:main.c        ****     preCount_th_Reg_3_Write(255);
 109:main.c        ****  
 110:main.c        ****     Count_th_Reg_1_Write(255);
 111:main.c        ****     Count_th_Reg_2_Write(255);
 112:main.c        ****     Count_th_Reg_3_Write(100);
 113:main.c        ****     
 114:main.c        ****     Control_Reg_1_Write(OFF_COMMAND);
 115:main.c        ****     //Control_Reg_1_Write(RESET_COMMAND);
 116:main.c        ****     //Control_Reg_1_Write(0b00000100);
 117:main.c        **** }
 118:main.c        **** 
 119:main.c        **** void standby_state_process()//2
ARM GAS  C:\Users\lucas\AppData\Local\Temp\ccoY5NGo.s 			page 4


 120:main.c        **** {
  53              		.loc 1 120 0
  54              		.cfi_startproc
  55              		@ args = 0, pretend = 0, frame = 0
  56              		@ frame_needed = 0, uses_anonymous_args = 0
  57              		@ link register save eliminated.
  58 0000 7047     		bx	lr
  59              		.cfi_endproc
  60              	.LFE68:
  61              		.size	standby_state_process, .-standby_state_process
  62 0002 00BF     		.section	.text.RxInterrupt_1,"ax",%progbits
  63              		.align	2
  64              		.global	RxInterrupt_1
  65              		.thumb
  66              		.thumb_func
  67              		.type	RxInterrupt_1, %function
  68              	RxInterrupt_1:
  69              	.LFB64:
  63:main.c        ****     main_state = UART_1_GetChar();
  70              		.loc 1 63 0
  71              		.cfi_startproc
  72              		@ args = 0, pretend = 0, frame = 0
  73              		@ frame_needed = 0, uses_anonymous_args = 0
  63:main.c        ****     main_state = UART_1_GetChar();
  74              		.loc 1 63 0
  75 0000 08B5     		push	{r3, lr}
  76              		.cfi_def_cfa_offset 8
  77              		.cfi_offset 3, -8
  78              		.cfi_offset 14, -4
  64:main.c        **** }
  79              		.loc 1 64 0
  80 0002 FFF7FEFF 		bl	UART_1_GetChar
  81              	.LVL0:
  82 0006 014B     		ldr	r3, .L7
  83 0008 1860     		str	r0, [r3]
  84 000a 08BD     		pop	{r3, pc}
  85              	.L8:
  86              		.align	2
  87              	.L7:
  88 000c 00000000 		.word	main_state
  89              		.cfi_endproc
  90              	.LFE64:
  91              		.size	RxInterrupt_1, .-RxInterrupt_1
  92              		.section	.text.exit_state_process,"ax",%progbits
  93              		.align	2
  94              		.global	exit_state_process
  95              		.thumb
  96              		.thumb_func
  97              		.type	exit_state_process, %function
  98              	exit_state_process:
  99              	.LFB66:
  94:main.c        ****     isr_match_Disable();
 100              		.loc 1 94 0
 101              		.cfi_startproc
 102              		@ args = 0, pretend = 0, frame = 0
 103              		@ frame_needed = 0, uses_anonymous_args = 0
 104 0000 08B5     		push	{r3, lr}
ARM GAS  C:\Users\lucas\AppData\Local\Temp\ccoY5NGo.s 			page 5


 105              		.cfi_def_cfa_offset 8
 106              		.cfi_offset 3, -8
 107              		.cfi_offset 14, -4
  95:main.c        ****     
 108              		.loc 1 95 0
 109 0002 FFF7FEFF 		bl	isr_match_Disable
 110              	.LVL1:
  97:main.c        ****     Control_Reg_1_Write(RESET_COMMAND|ENABLE_COMMAND);
 111              		.loc 1 97 0
 112 0006 0020     		movs	r0, #0
 113 0008 FFF7FEFF 		bl	Control_Reg_1_Write
 114              	.LVL2:
  98:main.c        ****     Control_Reg_1_Write(OFF_COMMAND);
 115              		.loc 1 98 0
 116 000c 0720     		movs	r0, #7
 117 000e FFF7FEFF 		bl	Control_Reg_1_Write
 118              	.LVL3:
  99:main.c        **** }
 119              		.loc 1 99 0
 120 0012 0020     		movs	r0, #0
 121 0014 FFF7FEFF 		bl	Control_Reg_1_Write
 122              	.LVL4:
 123 0018 08BD     		pop	{r3, pc}
 124              		.cfi_endproc
 125              	.LFE66:
 126              		.size	exit_state_process, .-exit_state_process
 127 001a 00BF     		.section	.text.scanOff_state_process,"ax",%progbits
 128              		.align	2
 129              		.global	scanOff_state_process
 130              		.thumb
 131              		.thumb_func
 132              		.type	scanOff_state_process, %function
 133              	scanOff_state_process:
 134              	.LFB70:
 121:main.c        ****     
 122:main.c        **** }
 123:main.c        **** 
 124:main.c        **** void scanOn_state_process()//4
 125:main.c        **** {
 126:main.c        ****     main_state = STANDBY_STATE;
 127:main.c        ****     isr_match_Enable();
 128:main.c        ****     Control_Reg_1_Write(RESET_COMMAND|ENABLE_COMMAND);
 129:main.c        ****     Control_Reg_1_Write(ENABLE_COMMAND);
 130:main.c        **** }
 131:main.c        **** 
 132:main.c        **** void scanOff_state_process()//5
 133:main.c        **** {
 135              		.loc 1 133 0
 136              		.cfi_startproc
 137              		@ args = 0, pretend = 0, frame = 0
 138              		@ frame_needed = 0, uses_anonymous_args = 0
 139 0000 08B5     		push	{r3, lr}
 140              		.cfi_def_cfa_offset 8
 141              		.cfi_offset 3, -8
 142              		.cfi_offset 14, -4
 134:main.c        ****     isr_match_Disable();
 143              		.loc 1 134 0
ARM GAS  C:\Users\lucas\AppData\Local\Temp\ccoY5NGo.s 			page 6


 144 0002 FFF7FEFF 		bl	isr_match_Disable
 145              	.LVL5:
 135:main.c        ****     main_state = STANDBY_STATE;
 146              		.loc 1 135 0
 147 0006 0222     		movs	r2, #2
 148 0008 024B     		ldr	r3, .L13
 149 000a 1A60     		str	r2, [r3]
 136:main.c        ****     Control_Reg_1_Write(OFF_COMMAND);   
 150              		.loc 1 136 0
 151 000c 0020     		movs	r0, #0
 152 000e FFF7FEFF 		bl	Control_Reg_1_Write
 153              	.LVL6:
 154 0012 08BD     		pop	{r3, pc}
 155              	.L14:
 156              		.align	2
 157              	.L13:
 158 0014 00000000 		.word	main_state
 159              		.cfi_endproc
 160              	.LFE70:
 161              		.size	scanOff_state_process, .-scanOff_state_process
 162              		.section	.text.start_state_process,"ax",%progbits
 163              		.align	2
 164              		.global	start_state_process
 165              		.thumb
 166              		.thumb_func
 167              		.type	start_state_process, %function
 168              	start_state_process:
 169              	.LFB67:
 103:main.c        ****     main_state = STANDBY_STATE;
 170              		.loc 1 103 0
 171              		.cfi_startproc
 172              		@ args = 0, pretend = 0, frame = 0
 173              		@ frame_needed = 0, uses_anonymous_args = 0
 174 0000 08B5     		push	{r3, lr}
 175              		.cfi_def_cfa_offset 8
 176              		.cfi_offset 3, -8
 177              		.cfi_offset 14, -4
 104:main.c        ****     
 178              		.loc 1 104 0
 179 0002 0222     		movs	r2, #2
 180 0004 0B4B     		ldr	r3, .L17
 181 0006 1A60     		str	r2, [r3]
 106:main.c        ****     preCount_th_Reg_2_Write(255);
 182              		.loc 1 106 0
 183 0008 FF20     		movs	r0, #255
 184 000a FFF7FEFF 		bl	preCount_th_Reg_1_Write
 185              	.LVL7:
 107:main.c        ****     preCount_th_Reg_3_Write(255);
 186              		.loc 1 107 0
 187 000e FF20     		movs	r0, #255
 188 0010 FFF7FEFF 		bl	preCount_th_Reg_2_Write
 189              	.LVL8:
 108:main.c        ****  
 190              		.loc 1 108 0
 191 0014 FF20     		movs	r0, #255
 192 0016 FFF7FEFF 		bl	preCount_th_Reg_3_Write
 193              	.LVL9:
ARM GAS  C:\Users\lucas\AppData\Local\Temp\ccoY5NGo.s 			page 7


 110:main.c        ****     Count_th_Reg_2_Write(255);
 194              		.loc 1 110 0
 195 001a FF20     		movs	r0, #255
 196 001c FFF7FEFF 		bl	Count_th_Reg_1_Write
 197              	.LVL10:
 111:main.c        ****     Count_th_Reg_3_Write(100);
 198              		.loc 1 111 0
 199 0020 FF20     		movs	r0, #255
 200 0022 FFF7FEFF 		bl	Count_th_Reg_2_Write
 201              	.LVL11:
 112:main.c        ****     
 202              		.loc 1 112 0
 203 0026 6420     		movs	r0, #100
 204 0028 FFF7FEFF 		bl	Count_th_Reg_3_Write
 205              	.LVL12:
 114:main.c        ****     //Control_Reg_1_Write(RESET_COMMAND);
 206              		.loc 1 114 0
 207 002c 0020     		movs	r0, #0
 208 002e FFF7FEFF 		bl	Control_Reg_1_Write
 209              	.LVL13:
 210 0032 08BD     		pop	{r3, pc}
 211              	.L18:
 212              		.align	2
 213              	.L17:
 214 0034 00000000 		.word	main_state
 215              		.cfi_endproc
 216              	.LFE67:
 217              		.size	start_state_process, .-start_state_process
 218              		.section	.text.setRegs_state_process,"ax",%progbits
 219              		.align	2
 220              		.global	setRegs_state_process
 221              		.thumb
 222              		.thumb_func
 223              		.type	setRegs_state_process, %function
 224              	setRegs_state_process:
 225              	.LFB72:
 137:main.c        **** }
 138:main.c        **** 
 139:main.c        **** void sampler_state_process()//5
 140:main.c        **** {
 141:main.c        ****     main_state = STANDBY_STATE;
 142:main.c        ****     
 143:main.c        ****     //UART_1_WriteTxData(10);
 144:main.c        **** //    Control_Reg_1_Write(RESET_COMMAND|ENABLE_COMMAND);
 145:main.c        **** //    Control_Reg_1_Write(ENABLE_COMMAND);
 146:main.c        ****     
 147:main.c        ****     preCounter_samplerArray[0]=preCounter_Reg_1_Read();
 148:main.c        ****     preCounter_samplerArray[1]=preCounter_Reg_2_Read();
 149:main.c        ****     preCounter_samplerArray[2]=preCounter_Reg_3_Read();
 150:main.c        ****     
 151:main.c        ****     Counter_samplerArray[0]=Counter_Reg_1_Read();
 152:main.c        ****     Counter_samplerArray[1]=Counter_Reg_2_Read();
 153:main.c        ****     Counter_samplerArray[2]=Counter_Reg_3_Read();
 154:main.c        ****     
 155:main.c        ****     UART_1_PutArray(preCounter_samplerArray, 3);
 156:main.c        ****     UART_1_PutArray(Counter_samplerArray, 3);
 157:main.c        **** }
ARM GAS  C:\Users\lucas\AppData\Local\Temp\ccoY5NGo.s 			page 8


 158:main.c        **** 
 159:main.c        **** void setRegs_state_process()//6
 160:main.c        **** {
 226              		.loc 1 160 0
 227              		.cfi_startproc
 228              		@ args = 0, pretend = 0, frame = 0
 229              		@ frame_needed = 0, uses_anonymous_args = 0
 230              	.L20:
 161:main.c        ****     while(main_state==SETREGS_STATE){}
 231              		.loc 1 161 0 discriminator 1
 232 0000 224B     		ldr	r3, .L27
 233 0002 1B68     		ldr	r3, [r3]
 234 0004 062B     		cmp	r3, #6
 235 0006 FBD0     		beq	.L20
 160:main.c        ****     while(main_state==SETREGS_STATE){}
 236              		.loc 1 160 0
 237 0008 10B5     		push	{r4, lr}
 238              		.cfi_def_cfa_offset 8
 239              		.cfi_offset 4, -8
 240              		.cfi_offset 14, -4
 162:main.c        ****     preCount_th_Reg_1_Write(main_state);
 241              		.loc 1 162 0
 242 000a 204C     		ldr	r4, .L27
 243 000c 2068     		ldr	r0, [r4]
 244 000e C0B2     		uxtb	r0, r0
 245 0010 FFF7FEFF 		bl	preCount_th_Reg_1_Write
 246              	.LVL14:
 163:main.c        ****     main_state = SETREGS_STATE;
 247              		.loc 1 163 0
 248 0014 0623     		movs	r3, #6
 249 0016 2360     		str	r3, [r4]
 250              	.L21:
 164:main.c        **** 
 165:main.c        ****     while(main_state==SETREGS_STATE){}
 251              		.loc 1 165 0 discriminator 1
 252 0018 1C4B     		ldr	r3, .L27
 253 001a 1B68     		ldr	r3, [r3]
 254 001c 062B     		cmp	r3, #6
 255 001e FBD0     		beq	.L21
 166:main.c        ****     preCount_th_Reg_2_Write(main_state);
 256              		.loc 1 166 0
 257 0020 1A4C     		ldr	r4, .L27
 258 0022 2068     		ldr	r0, [r4]
 259 0024 C0B2     		uxtb	r0, r0
 260 0026 FFF7FEFF 		bl	preCount_th_Reg_2_Write
 261              	.LVL15:
 167:main.c        ****     main_state = SETREGS_STATE;
 262              		.loc 1 167 0
 263 002a 0623     		movs	r3, #6
 264 002c 2360     		str	r3, [r4]
 265              	.L22:
 168:main.c        ****     
 169:main.c        ****     while(main_state==SETREGS_STATE){}
 266              		.loc 1 169 0 discriminator 1
 267 002e 174B     		ldr	r3, .L27
 268 0030 1B68     		ldr	r3, [r3]
 269 0032 062B     		cmp	r3, #6
ARM GAS  C:\Users\lucas\AppData\Local\Temp\ccoY5NGo.s 			page 9


 270 0034 FBD0     		beq	.L22
 170:main.c        ****     preCount_th_Reg_3_Write(main_state);
 271              		.loc 1 170 0
 272 0036 154C     		ldr	r4, .L27
 273 0038 2068     		ldr	r0, [r4]
 274 003a C0B2     		uxtb	r0, r0
 275 003c FFF7FEFF 		bl	preCount_th_Reg_3_Write
 276              	.LVL16:
 171:main.c        ****     main_state = SETREGS_STATE;
 277              		.loc 1 171 0
 278 0040 0623     		movs	r3, #6
 279 0042 2360     		str	r3, [r4]
 280              	.L23:
 172:main.c        ****   
 173:main.c        ****     while(main_state==SETREGS_STATE){}
 281              		.loc 1 173 0 discriminator 1
 282 0044 114B     		ldr	r3, .L27
 283 0046 1B68     		ldr	r3, [r3]
 284 0048 062B     		cmp	r3, #6
 285 004a FBD0     		beq	.L23
 174:main.c        ****     Count_th_Reg_1_Write(main_state);
 286              		.loc 1 174 0
 287 004c 0F4C     		ldr	r4, .L27
 288 004e 2068     		ldr	r0, [r4]
 289 0050 C0B2     		uxtb	r0, r0
 290 0052 FFF7FEFF 		bl	Count_th_Reg_1_Write
 291              	.LVL17:
 175:main.c        ****     main_state = SETREGS_STATE;
 292              		.loc 1 175 0
 293 0056 0623     		movs	r3, #6
 294 0058 2360     		str	r3, [r4]
 295              	.L24:
 176:main.c        **** 
 177:main.c        ****     while(main_state==SETREGS_STATE){}
 296              		.loc 1 177 0 discriminator 1
 297 005a 0C4B     		ldr	r3, .L27
 298 005c 1B68     		ldr	r3, [r3]
 299 005e 062B     		cmp	r3, #6
 300 0060 FBD0     		beq	.L24
 178:main.c        ****     Count_th_Reg_2_Write(main_state);
 301              		.loc 1 178 0
 302 0062 0A4C     		ldr	r4, .L27
 303 0064 2068     		ldr	r0, [r4]
 304 0066 C0B2     		uxtb	r0, r0
 305 0068 FFF7FEFF 		bl	Count_th_Reg_2_Write
 306              	.LVL18:
 179:main.c        ****     main_state = SETREGS_STATE;
 307              		.loc 1 179 0
 308 006c 0623     		movs	r3, #6
 309 006e 2360     		str	r3, [r4]
 310              	.L25:
 180:main.c        ****     
 181:main.c        ****     while(main_state==SETREGS_STATE){}
 311              		.loc 1 181 0 discriminator 1
 312 0070 064B     		ldr	r3, .L27
 313 0072 1B68     		ldr	r3, [r3]
 314 0074 062B     		cmp	r3, #6
ARM GAS  C:\Users\lucas\AppData\Local\Temp\ccoY5NGo.s 			page 10


 315 0076 FBD0     		beq	.L25
 182:main.c        ****     Count_th_Reg_3_Write(main_state);
 316              		.loc 1 182 0
 317 0078 044C     		ldr	r4, .L27
 318 007a 2068     		ldr	r0, [r4]
 319 007c C0B2     		uxtb	r0, r0
 320 007e FFF7FEFF 		bl	Count_th_Reg_3_Write
 321              	.LVL19:
 183:main.c        ****     main_state = SETREGS_STATE;
 322              		.loc 1 183 0
 323 0082 0623     		movs	r3, #6
 324 0084 2360     		str	r3, [r4]
 184:main.c        ****     
 185:main.c        ****     main_state = STANDBY_STATE; 
 325              		.loc 1 185 0
 326 0086 0223     		movs	r3, #2
 327 0088 2360     		str	r3, [r4]
 328 008a 10BD     		pop	{r4, pc}
 329              	.L28:
 330              		.align	2
 331              	.L27:
 332 008c 00000000 		.word	main_state
 333              		.cfi_endproc
 334              	.LFE72:
 335              		.size	setRegs_state_process, .-setRegs_state_process
 336              		.section	.text.scanOn_state_process,"ax",%progbits
 337              		.align	2
 338              		.global	scanOn_state_process
 339              		.thumb
 340              		.thumb_func
 341              		.type	scanOn_state_process, %function
 342              	scanOn_state_process:
 343              	.LFB69:
 125:main.c        ****     main_state = STANDBY_STATE;
 344              		.loc 1 125 0
 345              		.cfi_startproc
 346              		@ args = 0, pretend = 0, frame = 0
 347              		@ frame_needed = 0, uses_anonymous_args = 0
 348 0000 08B5     		push	{r3, lr}
 349              		.cfi_def_cfa_offset 8
 350              		.cfi_offset 3, -8
 351              		.cfi_offset 14, -4
 126:main.c        ****     isr_match_Enable();
 352              		.loc 1 126 0
 353 0002 0222     		movs	r2, #2
 354 0004 054B     		ldr	r3, .L31
 355 0006 1A60     		str	r2, [r3]
 127:main.c        ****     Control_Reg_1_Write(RESET_COMMAND|ENABLE_COMMAND);
 356              		.loc 1 127 0
 357 0008 FFF7FEFF 		bl	isr_match_Enable
 358              	.LVL20:
 128:main.c        ****     Control_Reg_1_Write(ENABLE_COMMAND);
 359              		.loc 1 128 0
 360 000c 0720     		movs	r0, #7
 361 000e FFF7FEFF 		bl	Control_Reg_1_Write
 362              	.LVL21:
 129:main.c        **** }
ARM GAS  C:\Users\lucas\AppData\Local\Temp\ccoY5NGo.s 			page 11


 363              		.loc 1 129 0
 364 0012 0620     		movs	r0, #6
 365 0014 FFF7FEFF 		bl	Control_Reg_1_Write
 366              	.LVL22:
 367 0018 08BD     		pop	{r3, pc}
 368              	.L32:
 369 001a 00BF     		.align	2
 370              	.L31:
 371 001c 00000000 		.word	main_state
 372              		.cfi_endproc
 373              	.LFE69:
 374              		.size	scanOn_state_process, .-scanOn_state_process
 375              		.section	.text.sampler_state_process,"ax",%progbits
 376              		.align	2
 377              		.global	sampler_state_process
 378              		.thumb
 379              		.thumb_func
 380              		.type	sampler_state_process, %function
 381              	sampler_state_process:
 382              	.LFB71:
 140:main.c        ****     main_state = STANDBY_STATE;
 383              		.loc 1 140 0
 384              		.cfi_startproc
 385              		@ args = 0, pretend = 0, frame = 0
 386              		@ frame_needed = 0, uses_anonymous_args = 0
 387 0000 38B5     		push	{r3, r4, r5, lr}
 388              		.cfi_def_cfa_offset 16
 389              		.cfi_offset 3, -16
 390              		.cfi_offset 4, -12
 391              		.cfi_offset 5, -8
 392              		.cfi_offset 14, -4
 141:main.c        ****     
 393              		.loc 1 141 0
 394 0002 0222     		movs	r2, #2
 395 0004 0F4B     		ldr	r3, .L35
 396 0006 1A60     		str	r2, [r3]
 147:main.c        ****     preCounter_samplerArray[1]=preCounter_Reg_2_Read();
 397              		.loc 1 147 0
 398 0008 FFF7FEFF 		bl	preCounter_Reg_1_Read
 399              	.LVL23:
 400 000c 0E4D     		ldr	r5, .L35+4
 401 000e 2870     		strb	r0, [r5]
 148:main.c        ****     preCounter_samplerArray[2]=preCounter_Reg_3_Read();
 402              		.loc 1 148 0
 403 0010 FFF7FEFF 		bl	preCounter_Reg_2_Read
 404              	.LVL24:
 405 0014 6870     		strb	r0, [r5, #1]
 149:main.c        ****     
 406              		.loc 1 149 0
 407 0016 FFF7FEFF 		bl	preCounter_Reg_3_Read
 408              	.LVL25:
 409 001a A870     		strb	r0, [r5, #2]
 151:main.c        ****     Counter_samplerArray[1]=Counter_Reg_2_Read();
 410              		.loc 1 151 0
 411 001c FFF7FEFF 		bl	Counter_Reg_1_Read
 412              	.LVL26:
 413 0020 0A4C     		ldr	r4, .L35+8
ARM GAS  C:\Users\lucas\AppData\Local\Temp\ccoY5NGo.s 			page 12


 414 0022 2070     		strb	r0, [r4]
 152:main.c        ****     Counter_samplerArray[2]=Counter_Reg_3_Read();
 415              		.loc 1 152 0
 416 0024 FFF7FEFF 		bl	Counter_Reg_2_Read
 417              	.LVL27:
 418 0028 6070     		strb	r0, [r4, #1]
 153:main.c        ****     
 419              		.loc 1 153 0
 420 002a FFF7FEFF 		bl	Counter_Reg_3_Read
 421              	.LVL28:
 422 002e A070     		strb	r0, [r4, #2]
 155:main.c        ****     UART_1_PutArray(Counter_samplerArray, 3);
 423              		.loc 1 155 0
 424 0030 0321     		movs	r1, #3
 425 0032 2846     		mov	r0, r5
 426 0034 FFF7FEFF 		bl	UART_1_PutArray
 427              	.LVL29:
 156:main.c        **** }
 428              		.loc 1 156 0
 429 0038 0321     		movs	r1, #3
 430 003a 2046     		mov	r0, r4
 431 003c FFF7FEFF 		bl	UART_1_PutArray
 432              	.LVL30:
 433 0040 38BD     		pop	{r3, r4, r5, pc}
 434              	.L36:
 435 0042 00BF     		.align	2
 436              	.L35:
 437 0044 00000000 		.word	main_state
 438 0048 00000000 		.word	preCounter_samplerArray
 439 004c 00000000 		.word	Counter_samplerArray
 440              		.cfi_endproc
 441              	.LFE71:
 442              		.size	sampler_state_process, .-sampler_state_process
 443              		.section	.text.main,"ax",%progbits
 444              		.align	2
 445              		.global	main
 446              		.thumb
 447              		.thumb_func
 448              		.type	main, %function
 449              	main:
 450              	.LFB65:
  68:main.c        ****     CyGlobalIntEnable; /* Enable global interrupts. */
 451              		.loc 1 68 0
 452              		.cfi_startproc
 453              		@ Volatile: function does not return.
 454              		@ args = 0, pretend = 0, frame = 0
 455              		@ frame_needed = 0, uses_anonymous_args = 0
 456 0000 08B5     		push	{r3, lr}
 457              		.cfi_def_cfa_offset 8
 458              		.cfi_offset 3, -8
 459              		.cfi_offset 14, -4
  69:main.c        **** 
 460              		.loc 1 69 0
 461              		.syntax unified
 462              	@ 69 "main.c" 1
 463 0002 62B6     		CPSIE   i
 464              	@ 0 "" 2
ARM GAS  C:\Users\lucas\AppData\Local\Temp\ccoY5NGo.s 			page 13


  71:main.c        ****     isr_Rx_1_StartEx(RxInterrupt_1);
 465              		.loc 1 71 0
 466              		.thumb
 467              		.syntax unified
 468 0004 FFF7FEFF 		bl	UART_1_Start
 469              	.LVL31:
  72:main.c        ****     
 470              		.loc 1 72 0
 471 0008 0D48     		ldr	r0, .L42
 472 000a FFF7FEFF 		bl	isr_Rx_1_StartEx
 473              	.LVL32:
  76:main.c        ****     isr_match_Disable();
 474              		.loc 1 76 0
 475 000e 0D48     		ldr	r0, .L42+4
 476 0010 FFF7FEFF 		bl	isr_match_StartEx
 477              	.LVL33:
  77:main.c        ****     
 478              		.loc 1 77 0
 479 0014 FFF7FEFF 		bl	isr_match_Disable
 480              	.LVL34:
  79:main.c        ****     
 481              		.loc 1 79 0
 482 0018 0020     		movs	r0, #0
 483 001a FFF7FEFF 		bl	Control_Reg_1_Write
 484              	.LVL35:
  81:main.c        ****     
 485              		.loc 1 81 0
 486 001e FFF7FEFF 		bl	PWM_1_Start
 487              	.LVL36:
 488              	.L40:
  85:main.c        ****         while(main_state)
 489              		.loc 1 85 0
 490 0022 0122     		movs	r2, #1
 491 0024 084B     		ldr	r3, .L42+8
 492 0026 1A60     		str	r2, [r3]
  86:main.c        ****         {       
 493              		.loc 1 86 0
 494 0028 05E0     		b	.L38
 495              	.L39:
  88:main.c        ****         }
 496              		.loc 1 88 0
 497 002a 074B     		ldr	r3, .L42+8
 498 002c 1A68     		ldr	r2, [r3]
 499 002e 074B     		ldr	r3, .L42+12
 500 0030 53F82230 		ldr	r3, [r3, r2, lsl #2]
 501 0034 9847     		blx	r3
 502              	.LVL37:
 503              	.L38:
  86:main.c        ****         {       
 504              		.loc 1 86 0
 505 0036 044B     		ldr	r3, .L42+8
 506 0038 1B68     		ldr	r3, [r3]
 507 003a 002B     		cmp	r3, #0
 508 003c F5D1     		bne	.L39
 509 003e F0E7     		b	.L40
 510              	.L43:
 511              		.align	2
ARM GAS  C:\Users\lucas\AppData\Local\Temp\ccoY5NGo.s 			page 14


 512              	.L42:
 513 0040 00000000 		.word	RxInterrupt_1
 514 0044 00000000 		.word	matchInterrupt_handler
 515 0048 00000000 		.word	main_state
 516 004c 00000000 		.word	.LANCHOR0
 517              		.cfi_endproc
 518              	.LFE65:
 519              		.size	main, .-main
 520              		.comm	main_state,4,4
 521              		.global	main_state_table
 522              		.comm	Counter_samplerArray,3,4
 523              		.comm	preCounter_samplerArray,3,4
 524              		.data
 525              		.align	2
 526              		.set	.LANCHOR0,. + 0
 527              		.type	main_state_table, %object
 528              		.size	main_state_table, 28
 529              	main_state_table:
 530 0000 00000000 		.word	exit_state_process
 531 0004 00000000 		.word	start_state_process
 532 0008 00000000 		.word	standby_state_process
 533 000c 00000000 		.word	scanOn_state_process
 534 0010 00000000 		.word	scanOff_state_process
 535 0014 00000000 		.word	sampler_state_process
 536 0018 00000000 		.word	setRegs_state_process
 537              		.text
 538              	.Letext0:
 539              		.file 2 "c:\\program files (x86)\\cypress\\psoc creator\\4.2\\psoc creator\\import\\gnu\\arm\\5.4.
 540              		.file 3 "c:\\program files (x86)\\cypress\\psoc creator\\4.2\\psoc creator\\import\\gnu\\arm\\5.4.
 541              		.file 4 "Generated_Source\\PSoC5/cytypes.h"
 542              		.file 5 "Generated_Source\\PSoC5/core_cm3.h"
 543              		.file 6 "Generated_Source\\PSoC5/UART_1.h"
 544              		.file 7 "Generated_Source\\PSoC5/isr_match.h"
 545              		.file 8 "Generated_Source\\PSoC5/Control_Reg_1.h"
 546              		.file 9 "Generated_Source\\PSoC5/preCount_th_Reg_1.h"
 547              		.file 10 "Generated_Source\\PSoC5/preCount_th_Reg_2.h"
 548              		.file 11 "Generated_Source\\PSoC5/preCount_th_Reg_3.h"
 549              		.file 12 "Generated_Source\\PSoC5/Count_th_Reg_1.h"
 550              		.file 13 "Generated_Source\\PSoC5/Count_th_Reg_2.h"
 551              		.file 14 "Generated_Source\\PSoC5/Count_th_Reg_3.h"
 552              		.file 15 "Generated_Source\\PSoC5/preCounter_Reg_1.h"
 553              		.file 16 "Generated_Source\\PSoC5/preCounter_Reg_2.h"
 554              		.file 17 "Generated_Source\\PSoC5/preCounter_Reg_3.h"
 555              		.file 18 "Generated_Source\\PSoC5/Counter_Reg_1.h"
 556              		.file 19 "Generated_Source\\PSoC5/Counter_Reg_2.h"
 557              		.file 20 "Generated_Source\\PSoC5/Counter_Reg_3.h"
 558              		.file 21 "Generated_Source\\PSoC5/isr_Rx_1.h"
 559              		.file 22 "Generated_Source\\PSoC5/PWM_1.h"