ARM GAS  C:\Users\lucas\AppData\Local\Temp\ccgdeSJX.s 			page 1


   1              		.syntax unified
   2              		.cpu cortex-m3
   3              		.fpu softvfp
   4              		.eabi_attribute 20, 1
   5              		.eabi_attribute 21, 1
   6              		.eabi_attribute 23, 3
   7              		.eabi_attribute 24, 1
   8              		.eabi_attribute 25, 1
   9              		.eabi_attribute 26, 1
  10              		.eabi_attribute 30, 1
  11              		.eabi_attribute 34, 1
  12              		.eabi_attribute 18, 4
  13              		.thumb
  14              		.syntax unified
  15              		.file	"cyfitter_cfg.c"
  16              		.text
  17              	.Ltext0:
  18              		.cfi_sections	.debug_frame
  19              		.section	.text.cfg_write_bytes32,"ax",%progbits
  20              		.align	2
  21              		.thumb
  22              		.thumb_func
  23              		.type	cfg_write_bytes32, %function
  24              	cfg_write_bytes32:
  25              	.LFB3:
  26              		.file 1 "Generated_Source\\PSoC5\\cyfitter_cfg.c"
   1:Generated_Source\PSoC5/cyfitter_cfg.c **** 
   2:Generated_Source\PSoC5/cyfitter_cfg.c **** /*******************************************************************************
   3:Generated_Source\PSoC5/cyfitter_cfg.c **** * File Name: cyfitter_cfg.c
   4:Generated_Source\PSoC5/cyfitter_cfg.c **** * 
   5:Generated_Source\PSoC5/cyfitter_cfg.c **** * PSoC Creator  4.2
   6:Generated_Source\PSoC5/cyfitter_cfg.c **** *
   7:Generated_Source\PSoC5/cyfitter_cfg.c **** * Description:
   8:Generated_Source\PSoC5/cyfitter_cfg.c **** * This file contains device initialization code.
   9:Generated_Source\PSoC5/cyfitter_cfg.c **** * Except for the user defined sections in CyClockStartupError(), this file should not be modified.
  10:Generated_Source\PSoC5/cyfitter_cfg.c **** * This file is automatically generated by PSoC Creator.
  11:Generated_Source\PSoC5/cyfitter_cfg.c **** *
  12:Generated_Source\PSoC5/cyfitter_cfg.c **** ********************************************************************************
  13:Generated_Source\PSoC5/cyfitter_cfg.c **** * Copyright (c) 2007-2018 Cypress Semiconductor.  All rights reserved.
  14:Generated_Source\PSoC5/cyfitter_cfg.c **** * You may use this file only in accordance with the license, terms, conditions, 
  15:Generated_Source\PSoC5/cyfitter_cfg.c **** * disclaimers, and limitations in the end user license agreement accompanying 
  16:Generated_Source\PSoC5/cyfitter_cfg.c **** * the software package with which this file was provided.
  17:Generated_Source\PSoC5/cyfitter_cfg.c **** ********************************************************************************/
  18:Generated_Source\PSoC5/cyfitter_cfg.c **** 
  19:Generated_Source\PSoC5/cyfitter_cfg.c **** #include <string.h>
  20:Generated_Source\PSoC5/cyfitter_cfg.c **** #include "cytypes.h"
  21:Generated_Source\PSoC5/cyfitter_cfg.c **** #include "cydevice_trm.h"
  22:Generated_Source\PSoC5/cyfitter_cfg.c **** #include "cyfitter.h"
  23:Generated_Source\PSoC5/cyfitter_cfg.c **** #include "CyLib.h"
  24:Generated_Source\PSoC5/cyfitter_cfg.c **** #include "cyfitter_cfg.h"
  25:Generated_Source\PSoC5/cyfitter_cfg.c **** #include "cyapicallbacks.h"
  26:Generated_Source\PSoC5/cyfitter_cfg.c **** 
  27:Generated_Source\PSoC5/cyfitter_cfg.c **** 
  28:Generated_Source\PSoC5/cyfitter_cfg.c **** #if defined(__GNUC__) || defined(__ARMCC_VERSION)
  29:Generated_Source\PSoC5/cyfitter_cfg.c ****     #define CYPACKED 
  30:Generated_Source\PSoC5/cyfitter_cfg.c ****     #define CYPACKED_ATTR __attribute__ ((packed))
  31:Generated_Source\PSoC5/cyfitter_cfg.c ****     #define CYALIGNED __attribute__ ((aligned))
ARM GAS  C:\Users\lucas\AppData\Local\Temp\ccgdeSJX.s 			page 2


  32:Generated_Source\PSoC5/cyfitter_cfg.c ****     #define CY_CFG_UNUSED __attribute__ ((unused))
  33:Generated_Source\PSoC5/cyfitter_cfg.c ****     #ifndef CY_CFG_SECTION
  34:Generated_Source\PSoC5/cyfitter_cfg.c ****         #define CY_CFG_SECTION __attribute__ ((section(".psocinit")))
  35:Generated_Source\PSoC5/cyfitter_cfg.c ****     #endif
  36:Generated_Source\PSoC5/cyfitter_cfg.c ****     
  37:Generated_Source\PSoC5/cyfitter_cfg.c ****     #if defined(__ARMCC_VERSION)
  38:Generated_Source\PSoC5/cyfitter_cfg.c ****         #define CY_CFG_MEMORY_BARRIER() __memory_changed()
  39:Generated_Source\PSoC5/cyfitter_cfg.c ****     #else
  40:Generated_Source\PSoC5/cyfitter_cfg.c ****         #define CY_CFG_MEMORY_BARRIER() __sync_synchronize()
  41:Generated_Source\PSoC5/cyfitter_cfg.c ****     #endif
  42:Generated_Source\PSoC5/cyfitter_cfg.c ****     
  43:Generated_Source\PSoC5/cyfitter_cfg.c **** #elif defined(__ICCARM__)
  44:Generated_Source\PSoC5/cyfitter_cfg.c ****     #include <intrinsics.h>
  45:Generated_Source\PSoC5/cyfitter_cfg.c **** 
  46:Generated_Source\PSoC5/cyfitter_cfg.c ****     #define CYPACKED __packed
  47:Generated_Source\PSoC5/cyfitter_cfg.c ****     #define CYPACKED_ATTR 
  48:Generated_Source\PSoC5/cyfitter_cfg.c ****     #define CYALIGNED _Pragma("data_alignment=4")
  49:Generated_Source\PSoC5/cyfitter_cfg.c ****     #define CY_CFG_UNUSED _Pragma("diag_suppress=Pe177")
  50:Generated_Source\PSoC5/cyfitter_cfg.c ****     #define CY_CFG_SECTION _Pragma("location=\".psocinit\"")
  51:Generated_Source\PSoC5/cyfitter_cfg.c ****     
  52:Generated_Source\PSoC5/cyfitter_cfg.c ****     #define CY_CFG_MEMORY_BARRIER() __DMB()
  53:Generated_Source\PSoC5/cyfitter_cfg.c ****     
  54:Generated_Source\PSoC5/cyfitter_cfg.c **** #else
  55:Generated_Source\PSoC5/cyfitter_cfg.c ****     #error Unsupported toolchain
  56:Generated_Source\PSoC5/cyfitter_cfg.c **** #endif
  57:Generated_Source\PSoC5/cyfitter_cfg.c **** 
  58:Generated_Source\PSoC5/cyfitter_cfg.c **** #ifndef CYCODE
  59:Generated_Source\PSoC5/cyfitter_cfg.c ****     #define CYCODE
  60:Generated_Source\PSoC5/cyfitter_cfg.c **** #endif
  61:Generated_Source\PSoC5/cyfitter_cfg.c **** #ifndef CYDATA
  62:Generated_Source\PSoC5/cyfitter_cfg.c ****     #define CYDATA
  63:Generated_Source\PSoC5/cyfitter_cfg.c **** #endif
  64:Generated_Source\PSoC5/cyfitter_cfg.c **** #ifndef CYFAR
  65:Generated_Source\PSoC5/cyfitter_cfg.c ****     #define CYFAR
  66:Generated_Source\PSoC5/cyfitter_cfg.c **** #endif
  67:Generated_Source\PSoC5/cyfitter_cfg.c **** #ifndef CYXDATA
  68:Generated_Source\PSoC5/cyfitter_cfg.c ****     #define CYXDATA
  69:Generated_Source\PSoC5/cyfitter_cfg.c **** #endif
  70:Generated_Source\PSoC5/cyfitter_cfg.c **** 
  71:Generated_Source\PSoC5/cyfitter_cfg.c **** 
  72:Generated_Source\PSoC5/cyfitter_cfg.c **** CY_CFG_UNUSED
  73:Generated_Source\PSoC5/cyfitter_cfg.c **** static void CYMEMZERO(void *s, size_t n);
  74:Generated_Source\PSoC5/cyfitter_cfg.c **** CY_CFG_UNUSED
  75:Generated_Source\PSoC5/cyfitter_cfg.c **** static void CYMEMZERO(void *s, size_t n)
  76:Generated_Source\PSoC5/cyfitter_cfg.c **** {
  77:Generated_Source\PSoC5/cyfitter_cfg.c **** 	(void)memset(s, 0, n);
  78:Generated_Source\PSoC5/cyfitter_cfg.c **** }
  79:Generated_Source\PSoC5/cyfitter_cfg.c **** CY_CFG_UNUSED
  80:Generated_Source\PSoC5/cyfitter_cfg.c **** static void CYCONFIGCPY(void *dest, const void *src, size_t n);
  81:Generated_Source\PSoC5/cyfitter_cfg.c **** CY_CFG_UNUSED
  82:Generated_Source\PSoC5/cyfitter_cfg.c **** static void CYCONFIGCPY(void *dest, const void *src, size_t n)
  83:Generated_Source\PSoC5/cyfitter_cfg.c **** {
  84:Generated_Source\PSoC5/cyfitter_cfg.c **** 	(void)memcpy(dest, src, n);
  85:Generated_Source\PSoC5/cyfitter_cfg.c **** }
  86:Generated_Source\PSoC5/cyfitter_cfg.c **** CY_CFG_UNUSED
  87:Generated_Source\PSoC5/cyfitter_cfg.c **** static void CYCONFIGCPYCODE(void *dest, const void *src, size_t n);
  88:Generated_Source\PSoC5/cyfitter_cfg.c **** CY_CFG_UNUSED
ARM GAS  C:\Users\lucas\AppData\Local\Temp\ccgdeSJX.s 			page 3


  89:Generated_Source\PSoC5/cyfitter_cfg.c **** static void CYCONFIGCPYCODE(void *dest, const void *src, size_t n)
  90:Generated_Source\PSoC5/cyfitter_cfg.c **** {
  91:Generated_Source\PSoC5/cyfitter_cfg.c **** 	(void)memcpy(dest, src, n);
  92:Generated_Source\PSoC5/cyfitter_cfg.c **** }
  93:Generated_Source\PSoC5/cyfitter_cfg.c **** 
  94:Generated_Source\PSoC5/cyfitter_cfg.c **** 
  95:Generated_Source\PSoC5/cyfitter_cfg.c **** 
  96:Generated_Source\PSoC5/cyfitter_cfg.c **** 
  97:Generated_Source\PSoC5/cyfitter_cfg.c **** /* Clock startup error codes                                                   */
  98:Generated_Source\PSoC5/cyfitter_cfg.c **** #define CYCLOCKSTART_NO_ERROR    0u
  99:Generated_Source\PSoC5/cyfitter_cfg.c **** #define CYCLOCKSTART_XTAL_ERROR  1u
 100:Generated_Source\PSoC5/cyfitter_cfg.c **** #define CYCLOCKSTART_32KHZ_ERROR 2u
 101:Generated_Source\PSoC5/cyfitter_cfg.c **** #define CYCLOCKSTART_PLL_ERROR   3u
 102:Generated_Source\PSoC5/cyfitter_cfg.c **** #define CYCLOCKSTART_FLL_ERROR   4u
 103:Generated_Source\PSoC5/cyfitter_cfg.c **** #define CYCLOCKSTART_WCO_ERROR   5u
 104:Generated_Source\PSoC5/cyfitter_cfg.c **** 
 105:Generated_Source\PSoC5/cyfitter_cfg.c **** 
 106:Generated_Source\PSoC5/cyfitter_cfg.c **** #ifdef CY_NEED_CYCLOCKSTARTUPERROR
 107:Generated_Source\PSoC5/cyfitter_cfg.c **** /*******************************************************************************
 108:Generated_Source\PSoC5/cyfitter_cfg.c **** * Function Name: CyClockStartupError
 109:Generated_Source\PSoC5/cyfitter_cfg.c **** ********************************************************************************
 110:Generated_Source\PSoC5/cyfitter_cfg.c **** * Summary:
 111:Generated_Source\PSoC5/cyfitter_cfg.c **** *  If an error is encountered during clock configuration (crystal startup error,
 112:Generated_Source\PSoC5/cyfitter_cfg.c **** *  PLL lock error, etc.), the system will end up here.  Unless reimplemented by
 113:Generated_Source\PSoC5/cyfitter_cfg.c **** *  the customer, this function will stop in an infinite loop.
 114:Generated_Source\PSoC5/cyfitter_cfg.c **** *
 115:Generated_Source\PSoC5/cyfitter_cfg.c **** * Parameters:
 116:Generated_Source\PSoC5/cyfitter_cfg.c **** *   void
 117:Generated_Source\PSoC5/cyfitter_cfg.c **** *
 118:Generated_Source\PSoC5/cyfitter_cfg.c **** * Return:
 119:Generated_Source\PSoC5/cyfitter_cfg.c **** *   void
 120:Generated_Source\PSoC5/cyfitter_cfg.c **** *
 121:Generated_Source\PSoC5/cyfitter_cfg.c **** *******************************************************************************/
 122:Generated_Source\PSoC5/cyfitter_cfg.c **** CY_CFG_UNUSED
 123:Generated_Source\PSoC5/cyfitter_cfg.c **** static void CyClockStartupError(uint8 errorCode);
 124:Generated_Source\PSoC5/cyfitter_cfg.c **** CY_CFG_UNUSED
 125:Generated_Source\PSoC5/cyfitter_cfg.c **** static void CyClockStartupError(uint8 errorCode)
 126:Generated_Source\PSoC5/cyfitter_cfg.c **** {
 127:Generated_Source\PSoC5/cyfitter_cfg.c ****     /* To remove the compiler warning if errorCode not used.                */
 128:Generated_Source\PSoC5/cyfitter_cfg.c ****     errorCode = errorCode;
 129:Generated_Source\PSoC5/cyfitter_cfg.c **** 
 130:Generated_Source\PSoC5/cyfitter_cfg.c ****     /* If we have a clock startup error (bad MHz crystal, PLL lock, etc.),  */
 131:Generated_Source\PSoC5/cyfitter_cfg.c ****     /* we will end up here to allow the customer to implement something to  */
 132:Generated_Source\PSoC5/cyfitter_cfg.c ****     /* deal with the clock condition.                                       */
 133:Generated_Source\PSoC5/cyfitter_cfg.c **** 
 134:Generated_Source\PSoC5/cyfitter_cfg.c **** #ifdef CY_CFG_CLOCK_STARTUP_ERROR_CALLBACK
 135:Generated_Source\PSoC5/cyfitter_cfg.c ****     CY_CFG_Clock_Startup_ErrorCallback();
 136:Generated_Source\PSoC5/cyfitter_cfg.c **** #else
 137:Generated_Source\PSoC5/cyfitter_cfg.c ****     /*  If not using CY_CFG_CLOCK_STARTUP_ERROR_CALLBACK, place your clock startup code here. */
 138:Generated_Source\PSoC5/cyfitter_cfg.c ****     /* `#START CyClockStartupError` */
 139:Generated_Source\PSoC5/cyfitter_cfg.c **** 
 140:Generated_Source\PSoC5/cyfitter_cfg.c **** 
 141:Generated_Source\PSoC5/cyfitter_cfg.c **** 
 142:Generated_Source\PSoC5/cyfitter_cfg.c ****     /* `#END` */
 143:Generated_Source\PSoC5/cyfitter_cfg.c **** 
 144:Generated_Source\PSoC5/cyfitter_cfg.c ****     while(1) {}
 145:Generated_Source\PSoC5/cyfitter_cfg.c **** #endif /* CY_CFG_CLOCK_STARTUP_ERROR_CALLBACK */
ARM GAS  C:\Users\lucas\AppData\Local\Temp\ccgdeSJX.s 			page 4


 146:Generated_Source\PSoC5/cyfitter_cfg.c **** }
 147:Generated_Source\PSoC5/cyfitter_cfg.c **** #endif
 148:Generated_Source\PSoC5/cyfitter_cfg.c **** 
 149:Generated_Source\PSoC5/cyfitter_cfg.c **** #define CY_CFG_BASE_ADDR_COUNT 30u
 150:Generated_Source\PSoC5/cyfitter_cfg.c **** CYPACKED typedef struct
 151:Generated_Source\PSoC5/cyfitter_cfg.c **** {
 152:Generated_Source\PSoC5/cyfitter_cfg.c **** 	uint8 offset;
 153:Generated_Source\PSoC5/cyfitter_cfg.c **** 	uint8 value;
 154:Generated_Source\PSoC5/cyfitter_cfg.c **** } CYPACKED_ATTR cy_cfg_addrvalue_t;
 155:Generated_Source\PSoC5/cyfitter_cfg.c **** 
 156:Generated_Source\PSoC5/cyfitter_cfg.c **** #define cy_cfg_addr_table ((const uint32 CYFAR *)0x48000000u)
 157:Generated_Source\PSoC5/cyfitter_cfg.c **** #define cy_cfg_data_table ((const cy_cfg_addrvalue_t CYFAR *)0x48000078u)
 158:Generated_Source\PSoC5/cyfitter_cfg.c **** 
 159:Generated_Source\PSoC5/cyfitter_cfg.c **** /* IOPINS0_0 Address: CYREG_PRT0_DM0 Size (bytes): 8 */
 160:Generated_Source\PSoC5/cyfitter_cfg.c **** #define BS_IOPINS0_0_VAL ((const uint8 CYFAR *)0x48000550u)
 161:Generated_Source\PSoC5/cyfitter_cfg.c **** 
 162:Generated_Source\PSoC5/cyfitter_cfg.c **** /* IOPINS0_7 Address: CYREG_PRT12_DR Size (bytes): 10 */
 163:Generated_Source\PSoC5/cyfitter_cfg.c **** #define BS_IOPINS0_7_VAL ((const uint8 CYFAR *)0x48000558u)
 164:Generated_Source\PSoC5/cyfitter_cfg.c **** 
 165:Generated_Source\PSoC5/cyfitter_cfg.c **** /* IOPINS0_1 Address: CYREG_PRT1_DM0 Size (bytes): 8 */
 166:Generated_Source\PSoC5/cyfitter_cfg.c **** #define BS_IOPINS0_1_VAL ((const uint8 CYFAR *)0x48000564u)
 167:Generated_Source\PSoC5/cyfitter_cfg.c **** 
 168:Generated_Source\PSoC5/cyfitter_cfg.c **** /* IOPINS0_2 Address: CYREG_PRT2_DM0 Size (bytes): 8 */
 169:Generated_Source\PSoC5/cyfitter_cfg.c **** #define BS_IOPINS0_2_VAL ((const uint8 CYFAR *)0x4800056Cu)
 170:Generated_Source\PSoC5/cyfitter_cfg.c **** 
 171:Generated_Source\PSoC5/cyfitter_cfg.c **** 
 172:Generated_Source\PSoC5/cyfitter_cfg.c **** /*******************************************************************************
 173:Generated_Source\PSoC5/cyfitter_cfg.c **** * Function Name: cfg_write_bytes32
 174:Generated_Source\PSoC5/cyfitter_cfg.c **** ********************************************************************************
 175:Generated_Source\PSoC5/cyfitter_cfg.c **** * Summary:
 176:Generated_Source\PSoC5/cyfitter_cfg.c **** *  This function is used for setting up the chip configuration areas that
 177:Generated_Source\PSoC5/cyfitter_cfg.c **** *  contain relatively sparse data.
 178:Generated_Source\PSoC5/cyfitter_cfg.c **** *
 179:Generated_Source\PSoC5/cyfitter_cfg.c **** * Parameters:
 180:Generated_Source\PSoC5/cyfitter_cfg.c **** *   void
 181:Generated_Source\PSoC5/cyfitter_cfg.c **** *
 182:Generated_Source\PSoC5/cyfitter_cfg.c **** * Return:
 183:Generated_Source\PSoC5/cyfitter_cfg.c **** *   void
 184:Generated_Source\PSoC5/cyfitter_cfg.c **** *
 185:Generated_Source\PSoC5/cyfitter_cfg.c **** *******************************************************************************/
 186:Generated_Source\PSoC5/cyfitter_cfg.c **** static void cfg_write_bytes32(const uint32 addr_table[], const cy_cfg_addrvalue_t data_table[]);
 187:Generated_Source\PSoC5/cyfitter_cfg.c **** static void cfg_write_bytes32(const uint32 addr_table[], const cy_cfg_addrvalue_t data_table[])
 188:Generated_Source\PSoC5/cyfitter_cfg.c **** {
  27              		.loc 1 188 0
  28              		.cfi_startproc
  29              		@ args = 0, pretend = 0, frame = 0
  30              		@ frame_needed = 0, uses_anonymous_args = 0
  31              		@ link register save eliminated.
  32              	.LVL0:
  33 0000 F0B4     		push	{r4, r5, r6, r7}
  34              		.cfi_def_cfa_offset 16
  35              		.cfi_offset 4, -16
  36              		.cfi_offset 5, -12
  37              		.cfi_offset 6, -8
  38              		.cfi_offset 7, -4
  39              	.LVL1:
 189:Generated_Source\PSoC5/cyfitter_cfg.c **** 	/* For 32-bit little-endian architectures */
ARM GAS  C:\Users\lucas\AppData\Local\Temp\ccgdeSJX.s 			page 5


 190:Generated_Source\PSoC5/cyfitter_cfg.c **** 	uint32 i, j = 0u;
  40              		.loc 1 190 0
  41 0002 0022     		movs	r2, #0
 191:Generated_Source\PSoC5/cyfitter_cfg.c **** 	for (i = 0u; i < CY_CFG_BASE_ADDR_COUNT; i++)
  42              		.loc 1 191 0
  43 0004 1746     		mov	r7, r2
  44 0006 11E0     		b	.L2
  45              	.LVL2:
  46              	.L5:
  47              	.LBB2:
 192:Generated_Source\PSoC5/cyfitter_cfg.c **** 	{
 193:Generated_Source\PSoC5/cyfitter_cfg.c **** 		uint32 baseAddr = addr_table[i];
  48              		.loc 1 193 0
  49 0008 50F82760 		ldr	r6, [r0, r7, lsl #2]
  50              	.LVL3:
 194:Generated_Source\PSoC5/cyfitter_cfg.c **** 		uint8 count = (uint8)baseAddr;
  51              		.loc 1 194 0
  52 000c F3B2     		uxtb	r3, r6
  53              	.LVL4:
 195:Generated_Source\PSoC5/cyfitter_cfg.c **** 		baseAddr &= 0xFFFFFF00u;
  54              		.loc 1 195 0
  55 000e 26F0FF06 		bic	r6, r6, #255
  56              	.LVL5:
 196:Generated_Source\PSoC5/cyfitter_cfg.c **** 		while (count != 0u)
  57              		.loc 1 196 0
  58 0012 08E0     		b	.L3
  59              	.L4:
 197:Generated_Source\PSoC5/cyfitter_cfg.c **** 		{
 198:Generated_Source\PSoC5/cyfitter_cfg.c **** 			CY_SET_REG8((void *)(baseAddr + data_table[j].offset), data_table[j].value);
  60              		.loc 1 198 0
  61 0014 01EB4205 		add	r5, r1, r2, lsl #1
  62 0018 11F81240 		ldrb	r4, [r1, r2, lsl #1]	@ zero_extendqisi2
  63 001c 6D78     		ldrb	r5, [r5, #1]	@ zero_extendqisi2
  64 001e A555     		strb	r5, [r4, r6]
 199:Generated_Source\PSoC5/cyfitter_cfg.c **** 			j++;
  65              		.loc 1 199 0
  66 0020 0132     		adds	r2, r2, #1
  67              	.LVL6:
 200:Generated_Source\PSoC5/cyfitter_cfg.c **** 			count--;
  68              		.loc 1 200 0
  69 0022 013B     		subs	r3, r3, #1
  70              	.LVL7:
  71 0024 DBB2     		uxtb	r3, r3
  72              	.LVL8:
  73              	.L3:
 196:Generated_Source\PSoC5/cyfitter_cfg.c **** 		{
  74              		.loc 1 196 0
  75 0026 002B     		cmp	r3, #0
  76 0028 F4D1     		bne	.L4
  77              	.LBE2:
 191:Generated_Source\PSoC5/cyfitter_cfg.c **** 	{
  78              		.loc 1 191 0 discriminator 2
  79 002a 0137     		adds	r7, r7, #1
  80              	.LVL9:
  81              	.L2:
 191:Generated_Source\PSoC5/cyfitter_cfg.c **** 	{
  82              		.loc 1 191 0 is_stmt 0 discriminator 1
ARM GAS  C:\Users\lucas\AppData\Local\Temp\ccgdeSJX.s 			page 6


  83 002c 1D2F     		cmp	r7, #29
  84 002e EBD9     		bls	.L5
 201:Generated_Source\PSoC5/cyfitter_cfg.c **** 		}
 202:Generated_Source\PSoC5/cyfitter_cfg.c **** 	}
 203:Generated_Source\PSoC5/cyfitter_cfg.c **** }
  85              		.loc 1 203 0 is_stmt 1
  86 0030 F0BC     		pop	{r4, r5, r6, r7}
  87              		.cfi_restore 7
  88              		.cfi_restore 6
  89              		.cfi_restore 5
  90              		.cfi_restore 4
  91              		.cfi_def_cfa_offset 0
  92              	.LVL10:
  93 0032 7047     		bx	lr
  94              		.cfi_endproc
  95              	.LFE3:
  96              		.size	cfg_write_bytes32, .-cfg_write_bytes32
  97              		.section	.text.ClockSetup,"ax",%progbits
  98              		.align	2
  99              		.thumb
 100              		.thumb_func
 101              		.type	ClockSetup, %function
 102              	ClockSetup:
 103              	.LFB4:
 204:Generated_Source\PSoC5/cyfitter_cfg.c **** 
 205:Generated_Source\PSoC5/cyfitter_cfg.c **** /*******************************************************************************
 206:Generated_Source\PSoC5/cyfitter_cfg.c **** * Function Name: ClockSetup
 207:Generated_Source\PSoC5/cyfitter_cfg.c **** ********************************************************************************
 208:Generated_Source\PSoC5/cyfitter_cfg.c **** *
 209:Generated_Source\PSoC5/cyfitter_cfg.c **** * Summary:
 210:Generated_Source\PSoC5/cyfitter_cfg.c **** *  Performs the initialization of all of the clocks in the device based on the
 211:Generated_Source\PSoC5/cyfitter_cfg.c **** *  settings in the Clock tab of the DWR.  This includes enabling the requested
 212:Generated_Source\PSoC5/cyfitter_cfg.c **** *  clocks and setting the necessary dividers to produce the desired frequency. 
 213:Generated_Source\PSoC5/cyfitter_cfg.c **** *
 214:Generated_Source\PSoC5/cyfitter_cfg.c **** * Parameters:
 215:Generated_Source\PSoC5/cyfitter_cfg.c **** *  void
 216:Generated_Source\PSoC5/cyfitter_cfg.c **** *
 217:Generated_Source\PSoC5/cyfitter_cfg.c **** * Return:
 218:Generated_Source\PSoC5/cyfitter_cfg.c **** *  void
 219:Generated_Source\PSoC5/cyfitter_cfg.c **** *
 220:Generated_Source\PSoC5/cyfitter_cfg.c **** *******************************************************************************/
 221:Generated_Source\PSoC5/cyfitter_cfg.c **** static void ClockSetup(void);
 222:Generated_Source\PSoC5/cyfitter_cfg.c **** static void ClockSetup(void)
 223:Generated_Source\PSoC5/cyfitter_cfg.c **** {
 104              		.loc 1 223 0
 105              		.cfi_startproc
 106              		@ args = 0, pretend = 0, frame = 0
 107              		@ frame_needed = 0, uses_anonymous_args = 0
 108              		@ link register save eliminated.
 224:Generated_Source\PSoC5/cyfitter_cfg.c **** 
 225:Generated_Source\PSoC5/cyfitter_cfg.c **** 
 226:Generated_Source\PSoC5/cyfitter_cfg.c **** 	/* Configure Digital Clocks based on settings from Clock DWR */
 227:Generated_Source\PSoC5/cyfitter_cfg.c **** 	CY_SET_XTND_REG16((void CYFAR *)(CYREG_CLKDIST_DCFG0_CFG0), 0x0000u);
 109              		.loc 1 227 0
 110 0000 0023     		movs	r3, #0
 111 0002 1E4A     		ldr	r2, .L8
 112 0004 1380     		strh	r3, [r2]	@ movhi
ARM GAS  C:\Users\lucas\AppData\Local\Temp\ccgdeSJX.s 			page 7


 228:Generated_Source\PSoC5/cyfitter_cfg.c **** 	CY_SET_XTND_REG8((void CYFAR *)(CYREG_CLKDIST_DCFG0_CFG0 + 0x2u), 0x58u);
 113              		.loc 1 228 0
 114 0006 5821     		movs	r1, #88
 115 0008 0232     		adds	r2, r2, #2
 116 000a 1170     		strb	r1, [r2]
 229:Generated_Source\PSoC5/cyfitter_cfg.c **** 	CY_SET_XTND_REG16((void CYFAR *)(CYREG_CLKDIST_DCFG1_CFG0), 0x0067u);
 117              		.loc 1 229 0
 118 000c 6721     		movs	r1, #103
 119 000e 0232     		adds	r2, r2, #2
 120 0010 1180     		strh	r1, [r2]	@ movhi
 230:Generated_Source\PSoC5/cyfitter_cfg.c **** 	CY_SET_XTND_REG8((void CYFAR *)(CYREG_CLKDIST_DCFG1_CFG0 + 0x2u), 0x19u);
 121              		.loc 1 230 0
 122 0012 1921     		movs	r1, #25
 123 0014 0232     		adds	r2, r2, #2
 124 0016 1170     		strb	r1, [r2]
 231:Generated_Source\PSoC5/cyfitter_cfg.c **** 	CY_SET_XTND_REG16((void CYFAR *)(CYREG_CLKDIST_DCFG2_CFG0), 0xBB7Fu);
 125              		.loc 1 231 0
 126 0018 4BF67F31 		movw	r1, #47999
 127 001c 0232     		adds	r2, r2, #2
 128 001e 1180     		strh	r1, [r2]	@ movhi
 232:Generated_Source\PSoC5/cyfitter_cfg.c **** 	CY_SET_XTND_REG8((void CYFAR *)(CYREG_CLKDIST_DCFG2_CFG0 + 0x2u), 0x18u);
 129              		.loc 1 232 0
 130 0020 1821     		movs	r1, #24
 131 0022 0232     		adds	r2, r2, #2
 132 0024 1170     		strb	r1, [r2]
 233:Generated_Source\PSoC5/cyfitter_cfg.c **** 	CY_SET_XTND_REG16((void CYFAR *)(CYREG_CLKDIST_DCFG3_CFG0), 0x0003u);
 133              		.loc 1 233 0
 134 0026 0321     		movs	r1, #3
 135 0028 0232     		adds	r2, r2, #2
 136 002a 1180     		strh	r1, [r2]	@ movhi
 234:Generated_Source\PSoC5/cyfitter_cfg.c **** 	CY_SET_XTND_REG8((void CYFAR *)(CYREG_CLKDIST_DCFG3_CFG0 + 0x2u), 0x1Bu);
 137              		.loc 1 234 0
 138 002c 1B21     		movs	r1, #27
 139 002e 0232     		adds	r2, r2, #2
 140 0030 1170     		strb	r1, [r2]
 235:Generated_Source\PSoC5/cyfitter_cfg.c **** 
 236:Generated_Source\PSoC5/cyfitter_cfg.c **** 	/* Configure ILO based on settings from Clock DWR */
 237:Generated_Source\PSoC5/cyfitter_cfg.c **** 	CY_SET_XTND_REG8((void CYFAR *)(CYREG_SLOWCLK_ILO_CR0), 0x26u);
 141              		.loc 1 237 0
 142 0032 2621     		movs	r1, #38
 143 0034 02F27222 		addw	r2, r2, #626
 144 0038 1170     		strb	r1, [r2]
 238:Generated_Source\PSoC5/cyfitter_cfg.c **** 	CY_SET_XTND_REG8((void CYFAR *)(CYREG_CLKDIST_CR), 0x08u);
 145              		.loc 1 238 0
 146 003a 0821     		movs	r1, #8
 147 003c 4FF04022 		mov	r2, #1073758208
 148 0040 1170     		strb	r1, [r2]
 239:Generated_Source\PSoC5/cyfitter_cfg.c **** 
 240:Generated_Source\PSoC5/cyfitter_cfg.c **** 	/* Configure IMO based on settings from Clock DWR */
 241:Generated_Source\PSoC5/cyfitter_cfg.c **** 	CY_SET_XTND_REG8((void CYFAR *)(CYREG_FASTCLK_IMO_CR), 0x04u);
 149              		.loc 1 241 0
 150 0042 0421     		movs	r1, #4
 151 0044 02F50072 		add	r2, r2, #512
 152 0048 1170     		strb	r1, [r2]
 242:Generated_Source\PSoC5/cyfitter_cfg.c **** 	CY_SET_XTND_REG8((void CYFAR *)(CYREG_IMO_TR1), (CY_GET_XTND_REG8((void CYFAR *)(CYREG_FLSHID_MFG_
 153              		.loc 1 242 0
 154 004a 0D4A     		ldr	r2, .L8+4
ARM GAS  C:\Users\lucas\AppData\Local\Temp\ccgdeSJX.s 			page 8


 155 004c 1278     		ldrb	r2, [r2]	@ zero_extendqisi2
 156 004e D2B2     		uxtb	r2, r2
 157 0050 0C49     		ldr	r1, .L8+8
 158 0052 0A70     		strb	r2, [r1]
 243:Generated_Source\PSoC5/cyfitter_cfg.c **** 
 244:Generated_Source\PSoC5/cyfitter_cfg.c **** 	/* Configure Bus/Master Clock based on settings from Clock DWR */
 245:Generated_Source\PSoC5/cyfitter_cfg.c **** 	CY_SET_XTND_REG16((void CYFAR *)(CYREG_CLKDIST_MSTR0), 0x0000u);
 159              		.loc 1 245 0
 160 0054 0C4A     		ldr	r2, .L8+12
 161 0056 1380     		strh	r3, [r2]	@ movhi
 246:Generated_Source\PSoC5/cyfitter_cfg.c **** 	CY_SET_XTND_REG8((void CYFAR *)(CYREG_CLKDIST_MSTR0), 0x07u);
 162              		.loc 1 246 0
 163 0058 0721     		movs	r1, #7
 164 005a 1170     		strb	r1, [r2]
 247:Generated_Source\PSoC5/cyfitter_cfg.c **** 	CY_SET_XTND_REG8((void CYFAR *)(CYREG_CLKDIST_BCFG0), 0x00u);
 165              		.loc 1 247 0
 166 005c 0B49     		ldr	r1, .L8+16
 167 005e 0B70     		strb	r3, [r1]
 248:Generated_Source\PSoC5/cyfitter_cfg.c **** 	CY_SET_XTND_REG8((void CYFAR *)(CYREG_CLKDIST_BCFG2), 0x48u);
 168              		.loc 1 248 0
 169 0060 4820     		movs	r0, #72
 170 0062 0231     		adds	r1, r1, #2
 171 0064 0870     		strb	r0, [r1]
 249:Generated_Source\PSoC5/cyfitter_cfg.c **** 	CY_SET_XTND_REG8((void CYFAR *)(CYREG_CLKDIST_MSTR0), 0x00u);
 172              		.loc 1 249 0
 173 0066 1370     		strb	r3, [r2]
 250:Generated_Source\PSoC5/cyfitter_cfg.c **** 	CY_SET_XTND_REG8((void CYFAR *)(CYREG_CLKDIST_LD), 0x02u);
 174              		.loc 1 250 0
 175 0068 0222     		movs	r2, #2
 176 006a 094B     		ldr	r3, .L8+20
 177 006c 1A70     		strb	r2, [r3]
 251:Generated_Source\PSoC5/cyfitter_cfg.c **** 
 252:Generated_Source\PSoC5/cyfitter_cfg.c **** 	CY_SET_XTND_REG8((void CYFAR *)(CYREG_PM_ACT_CFG2), ((CY_GET_XTND_REG8((void CYFAR *)CYREG_PM_ACT_
 178              		.loc 1 252 0
 179 006e 094A     		ldr	r2, .L8+24
 180 0070 1378     		ldrb	r3, [r2]	@ zero_extendqisi2
 181 0072 43F00F03 		orr	r3, r3, #15
 182 0076 1370     		strb	r3, [r2]
 183 0078 7047     		bx	lr
 184              	.L9:
 185 007a 00BF     		.align	2
 186              	.L8:
 187 007c 80400040 		.word	1073758336
 188 0080 89010049 		.word	1224737161
 189 0084 A1460040 		.word	1073759905
 190 0088 04400040 		.word	1073758212
 191 008c 06400040 		.word	1073758214
 192 0090 01400040 		.word	1073758209
 193 0094 A2430040 		.word	1073759138
 194              		.cfi_endproc
 195              	.LFE4:
 196              		.size	ClockSetup, .-ClockSetup
 197              		.section	.text.AnalogSetDefault,"ax",%progbits
 198              		.align	2
 199              		.thumb
 200              		.thumb_func
 201              		.type	AnalogSetDefault, %function
ARM GAS  C:\Users\lucas\AppData\Local\Temp\ccgdeSJX.s 			page 9


 202              	AnalogSetDefault:
 203              	.LFB5:
 253:Generated_Source\PSoC5/cyfitter_cfg.c **** }
 254:Generated_Source\PSoC5/cyfitter_cfg.c **** 
 255:Generated_Source\PSoC5/cyfitter_cfg.c **** 
 256:Generated_Source\PSoC5/cyfitter_cfg.c **** /* Analog API Functions */
 257:Generated_Source\PSoC5/cyfitter_cfg.c **** 
 258:Generated_Source\PSoC5/cyfitter_cfg.c **** 
 259:Generated_Source\PSoC5/cyfitter_cfg.c **** /*******************************************************************************
 260:Generated_Source\PSoC5/cyfitter_cfg.c **** * Function Name: AnalogSetDefault
 261:Generated_Source\PSoC5/cyfitter_cfg.c **** ********************************************************************************
 262:Generated_Source\PSoC5/cyfitter_cfg.c **** *
 263:Generated_Source\PSoC5/cyfitter_cfg.c **** * Summary:
 264:Generated_Source\PSoC5/cyfitter_cfg.c **** *  Sets up the analog portions of the chip to default values based on chip
 265:Generated_Source\PSoC5/cyfitter_cfg.c **** *  configuration options from the project.
 266:Generated_Source\PSoC5/cyfitter_cfg.c **** *
 267:Generated_Source\PSoC5/cyfitter_cfg.c **** * Parameters:
 268:Generated_Source\PSoC5/cyfitter_cfg.c **** *  void
 269:Generated_Source\PSoC5/cyfitter_cfg.c **** *
 270:Generated_Source\PSoC5/cyfitter_cfg.c **** * Return:
 271:Generated_Source\PSoC5/cyfitter_cfg.c **** *  void
 272:Generated_Source\PSoC5/cyfitter_cfg.c **** *
 273:Generated_Source\PSoC5/cyfitter_cfg.c **** *******************************************************************************/
 274:Generated_Source\PSoC5/cyfitter_cfg.c **** static void AnalogSetDefault(void);
 275:Generated_Source\PSoC5/cyfitter_cfg.c **** static void AnalogSetDefault(void)
 276:Generated_Source\PSoC5/cyfitter_cfg.c **** {
 204              		.loc 1 276 0
 205              		.cfi_startproc
 206              		@ args = 0, pretend = 0, frame = 0
 207              		@ frame_needed = 0, uses_anonymous_args = 0
 208              		@ link register save eliminated.
 277:Generated_Source\PSoC5/cyfitter_cfg.c **** 	uint8 bg_xover_inl_trim = CY_GET_XTND_REG8((void CYFAR *)(CYREG_FLSHID_MFG_CFG_BG_XOVER_INL_TRIM +
 209              		.loc 1 277 0
 210 0000 064B     		ldr	r3, .L11
 211 0002 1B78     		ldrb	r3, [r3]	@ zero_extendqisi2
 212 0004 DBB2     		uxtb	r3, r3
 213              	.LVL11:
 278:Generated_Source\PSoC5/cyfitter_cfg.c **** 	CY_SET_XTND_REG8((void CYFAR *)(CYREG_BG_DFT0), (bg_xover_inl_trim & 0x07u));
 214              		.loc 1 278 0
 215 0006 03F00701 		and	r1, r3, #7
 216 000a 054A     		ldr	r2, .L11+4
 217 000c 1170     		strb	r1, [r2]
 279:Generated_Source\PSoC5/cyfitter_cfg.c **** 	CY_SET_XTND_REG8((void CYFAR *)(CYREG_BG_DFT1), ((bg_xover_inl_trim >> 4) & 0x0Fu));
 218              		.loc 1 279 0
 219 000e 1B09     		lsrs	r3, r3, #4
 220              	.LVL12:
 221 0010 0132     		adds	r2, r2, #1
 222 0012 1370     		strb	r3, [r2]
 280:Generated_Source\PSoC5/cyfitter_cfg.c **** 	CY_SET_XTND_REG8((void CYFAR *)CYREG_PUMP_CR0, 0x44u);
 223              		.loc 1 280 0
 224 0014 4422     		movs	r2, #68
 225 0016 034B     		ldr	r3, .L11+8
 226 0018 1A70     		strb	r2, [r3]
 227 001a 7047     		bx	lr
 228              	.L12:
 229              		.align	2
 230              	.L11:
ARM GAS  C:\Users\lucas\AppData\Local\Temp\ccgdeSJX.s 			page 10


 231 001c CF010049 		.word	1224737231
 232 0020 6E580040 		.word	1073764462
 233 0024 76580040 		.word	1073764470
 234              		.cfi_endproc
 235              	.LFE5:
 236              		.size	AnalogSetDefault, .-AnalogSetDefault
 237              		.section	.text.CYMEMZERO,"ax",%progbits
 238              		.align	2
 239              		.thumb
 240              		.thumb_func
 241              		.type	CYMEMZERO, %function
 242              	CYMEMZERO:
 243              	.LFB0:
  76:Generated_Source\PSoC5/cyfitter_cfg.c **** 	(void)memset(s, 0, n);
 244              		.loc 1 76 0
 245              		.cfi_startproc
 246              		@ args = 0, pretend = 0, frame = 0
 247              		@ frame_needed = 0, uses_anonymous_args = 0
 248              	.LVL13:
 249 0000 08B5     		push	{r3, lr}
 250              		.cfi_def_cfa_offset 8
 251              		.cfi_offset 3, -8
 252              		.cfi_offset 14, -4
  77:Generated_Source\PSoC5/cyfitter_cfg.c **** }
 253              		.loc 1 77 0
 254 0002 0A46     		mov	r2, r1
 255 0004 0021     		movs	r1, #0
 256              	.LVL14:
 257 0006 FFF7FEFF 		bl	memset
 258              	.LVL15:
 259 000a 08BD     		pop	{r3, pc}
 260              		.cfi_endproc
 261              	.LFE0:
 262              		.size	CYMEMZERO, .-CYMEMZERO
 263              		.section	.text.CYCONFIGCPY,"ax",%progbits
 264              		.align	2
 265              		.thumb
 266              		.thumb_func
 267              		.type	CYCONFIGCPY, %function
 268              	CYCONFIGCPY:
 269              	.LFB1:
  83:Generated_Source\PSoC5/cyfitter_cfg.c **** 	(void)memcpy(dest, src, n);
 270              		.loc 1 83 0
 271              		.cfi_startproc
 272              		@ args = 0, pretend = 0, frame = 0
 273              		@ frame_needed = 0, uses_anonymous_args = 0
 274              	.LVL16:
 275 0000 08B5     		push	{r3, lr}
 276              		.cfi_def_cfa_offset 8
 277              		.cfi_offset 3, -8
 278              		.cfi_offset 14, -4
  84:Generated_Source\PSoC5/cyfitter_cfg.c **** }
 279              		.loc 1 84 0
 280 0002 FFF7FEFF 		bl	memcpy
 281              	.LVL17:
 282 0006 08BD     		pop	{r3, pc}
 283              		.cfi_endproc
ARM GAS  C:\Users\lucas\AppData\Local\Temp\ccgdeSJX.s 			page 11


 284              	.LFE1:
 285              		.size	CYCONFIGCPY, .-CYCONFIGCPY
 286              		.section	.text.SetAnalogRoutingPumps,"ax",%progbits
 287              		.align	2
 288              		.global	SetAnalogRoutingPumps
 289              		.thumb
 290              		.thumb_func
 291              		.type	SetAnalogRoutingPumps, %function
 292              	SetAnalogRoutingPumps:
 293              	.LFB6:
 281:Generated_Source\PSoC5/cyfitter_cfg.c **** }
 282:Generated_Source\PSoC5/cyfitter_cfg.c **** 
 283:Generated_Source\PSoC5/cyfitter_cfg.c **** 
 284:Generated_Source\PSoC5/cyfitter_cfg.c **** /*******************************************************************************
 285:Generated_Source\PSoC5/cyfitter_cfg.c **** * Function Name: SetAnalogRoutingPumps
 286:Generated_Source\PSoC5/cyfitter_cfg.c **** ********************************************************************************
 287:Generated_Source\PSoC5/cyfitter_cfg.c **** *
 288:Generated_Source\PSoC5/cyfitter_cfg.c **** * Summary:
 289:Generated_Source\PSoC5/cyfitter_cfg.c **** * Enables or disables the analog pumps feeding analog routing switches.
 290:Generated_Source\PSoC5/cyfitter_cfg.c **** * Intended to be called at startup, based on the Vdda system configuration;
 291:Generated_Source\PSoC5/cyfitter_cfg.c **** * may be called during operation when the user informs us that the Vdda voltage
 292:Generated_Source\PSoC5/cyfitter_cfg.c **** * crossed the pump threshold.
 293:Generated_Source\PSoC5/cyfitter_cfg.c **** *
 294:Generated_Source\PSoC5/cyfitter_cfg.c **** * Parameters:
 295:Generated_Source\PSoC5/cyfitter_cfg.c **** *  enabled - 1 to enable the pumps, 0 to disable the pumps
 296:Generated_Source\PSoC5/cyfitter_cfg.c **** *
 297:Generated_Source\PSoC5/cyfitter_cfg.c **** * Return:
 298:Generated_Source\PSoC5/cyfitter_cfg.c **** *  void
 299:Generated_Source\PSoC5/cyfitter_cfg.c **** *
 300:Generated_Source\PSoC5/cyfitter_cfg.c **** *******************************************************************************/
 301:Generated_Source\PSoC5/cyfitter_cfg.c **** void SetAnalogRoutingPumps(uint8 enabled)
 302:Generated_Source\PSoC5/cyfitter_cfg.c **** {
 294              		.loc 1 302 0
 295              		.cfi_startproc
 296              		@ args = 0, pretend = 0, frame = 0
 297              		@ frame_needed = 0, uses_anonymous_args = 0
 298              		@ link register save eliminated.
 299              	.LVL18:
 303:Generated_Source\PSoC5/cyfitter_cfg.c **** 	uint8 regValue = CY_GET_XTND_REG8((void CYFAR *)CYREG_PUMP_CR0);
 300              		.loc 1 303 0
 301 0000 024A     		ldr	r2, .L18
 302 0002 1378     		ldrb	r3, [r2]	@ zero_extendqisi2
 303 0004 DBB2     		uxtb	r3, r3
 304              	.LVL19:
 304:Generated_Source\PSoC5/cyfitter_cfg.c **** 	if (enabled != 0u)
 305:Generated_Source\PSoC5/cyfitter_cfg.c **** 	{
 306:Generated_Source\PSoC5/cyfitter_cfg.c **** 		regValue |= 0x00u;
 307:Generated_Source\PSoC5/cyfitter_cfg.c **** 	}
 308:Generated_Source\PSoC5/cyfitter_cfg.c **** 	else
 309:Generated_Source\PSoC5/cyfitter_cfg.c **** 	{
 310:Generated_Source\PSoC5/cyfitter_cfg.c **** 		regValue &= (uint8)~0x00u;
 311:Generated_Source\PSoC5/cyfitter_cfg.c **** 	}
 312:Generated_Source\PSoC5/cyfitter_cfg.c **** 	CY_SET_XTND_REG8((void CYFAR *)CYREG_PUMP_CR0, regValue);
 305              		.loc 1 312 0
 306 0006 1370     		strb	r3, [r2]
 307 0008 7047     		bx	lr
 308              	.L19:
ARM GAS  C:\Users\lucas\AppData\Local\Temp\ccgdeSJX.s 			page 12


 309 000a 00BF     		.align	2
 310              	.L18:
 311 000c 76580040 		.word	1073764470
 312              		.cfi_endproc
 313              	.LFE6:
 314              		.size	SetAnalogRoutingPumps, .-SetAnalogRoutingPumps
 315              		.section	.text.cyfitter_cfg,"ax",%progbits
 316              		.align	2
 317              		.global	cyfitter_cfg
 318              		.thumb
 319              		.thumb_func
 320              		.type	cyfitter_cfg, %function
 321              	cyfitter_cfg:
 322              	.LFB7:
 313:Generated_Source\PSoC5/cyfitter_cfg.c **** }
 314:Generated_Source\PSoC5/cyfitter_cfg.c **** 
 315:Generated_Source\PSoC5/cyfitter_cfg.c **** 
 316:Generated_Source\PSoC5/cyfitter_cfg.c **** 
 317:Generated_Source\PSoC5/cyfitter_cfg.c **** 
 318:Generated_Source\PSoC5/cyfitter_cfg.c **** /*******************************************************************************
 319:Generated_Source\PSoC5/cyfitter_cfg.c **** * Function Name: cyfitter_cfg
 320:Generated_Source\PSoC5/cyfitter_cfg.c **** ********************************************************************************
 321:Generated_Source\PSoC5/cyfitter_cfg.c **** * Summary:
 322:Generated_Source\PSoC5/cyfitter_cfg.c **** *  This function is called by the start-up code for the selected device. It
 323:Generated_Source\PSoC5/cyfitter_cfg.c **** *  performs all of the necessary device configuration based on the design
 324:Generated_Source\PSoC5/cyfitter_cfg.c **** *  settings.  This includes settings from the Design Wide Resources (DWR) such
 325:Generated_Source\PSoC5/cyfitter_cfg.c **** *  as Clocks and Pins as well as any component configuration that is necessary.
 326:Generated_Source\PSoC5/cyfitter_cfg.c **** *
 327:Generated_Source\PSoC5/cyfitter_cfg.c **** * Parameters:
 328:Generated_Source\PSoC5/cyfitter_cfg.c **** *   void
 329:Generated_Source\PSoC5/cyfitter_cfg.c **** *
 330:Generated_Source\PSoC5/cyfitter_cfg.c **** * Return:
 331:Generated_Source\PSoC5/cyfitter_cfg.c **** *   void
 332:Generated_Source\PSoC5/cyfitter_cfg.c **** *
 333:Generated_Source\PSoC5/cyfitter_cfg.c **** *******************************************************************************/
 334:Generated_Source\PSoC5/cyfitter_cfg.c **** 
 335:Generated_Source\PSoC5/cyfitter_cfg.c **** void cyfitter_cfg(void)
 336:Generated_Source\PSoC5/cyfitter_cfg.c **** {
 323              		.loc 1 336 0
 324              		.cfi_startproc
 325              		@ args = 0, pretend = 0, frame = 0
 326              		@ frame_needed = 0, uses_anonymous_args = 0
 327 0000 38B5     		push	{r3, r4, r5, lr}
 328              		.cfi_def_cfa_offset 16
 329              		.cfi_offset 3, -16
 330              		.cfi_offset 4, -12
 331              		.cfi_offset 5, -8
 332              		.cfi_offset 14, -4
 337:Generated_Source\PSoC5/cyfitter_cfg.c **** #ifdef CYGlobalIntDisable
 338:Generated_Source\PSoC5/cyfitter_cfg.c **** 	/* Disable interrupts by default. Let user enable if/when they want. */
 339:Generated_Source\PSoC5/cyfitter_cfg.c **** 	CYGlobalIntDisable
 333              		.loc 1 339 0
 334              		.syntax unified
 335              	@ 339 "Generated_Source\PSoC5\cyfitter_cfg.c" 1
 336 0002 72B6     		CPSID   i
 337              	@ 0 "" 2
 340:Generated_Source\PSoC5/cyfitter_cfg.c **** #endif
ARM GAS  C:\Users\lucas\AppData\Local\Temp\ccgdeSJX.s 			page 13


 341:Generated_Source\PSoC5/cyfitter_cfg.c **** 
 342:Generated_Source\PSoC5/cyfitter_cfg.c **** 	/* Enable/Disable Debug functionality based on settings from System DWR */
 343:Generated_Source\PSoC5/cyfitter_cfg.c **** 	CY_SET_XTND_REG8((void CYFAR *)CYREG_MLOGIC_DEBUG, (CY_GET_XTND_REG8((void CYFAR *)CYREG_MLOGIC_DE
 338              		.loc 1 343 0
 339              		.thumb
 340              		.syntax unified
 341 0004 2D4A     		ldr	r2, .L24
 342 0006 1378     		ldrb	r3, [r2]	@ zero_extendqisi2
 343 0008 43F00403 		orr	r3, r3, #4
 344 000c 1370     		strb	r3, [r2]
 345              	.LVL20:
 346              	.LBB3:
 344:Generated_Source\PSoC5/cyfitter_cfg.c **** 
 345:Generated_Source\PSoC5/cyfitter_cfg.c **** 	{
 346:Generated_Source\PSoC5/cyfitter_cfg.c **** 
 347:Generated_Source\PSoC5/cyfitter_cfg.c **** 		CYPACKED typedef struct {
 348:Generated_Source\PSoC5/cyfitter_cfg.c **** 			void CYFAR *address;
 349:Generated_Source\PSoC5/cyfitter_cfg.c **** 			uint16 size;
 350:Generated_Source\PSoC5/cyfitter_cfg.c **** 		} CYPACKED_ATTR cfg_memset_t;
 351:Generated_Source\PSoC5/cyfitter_cfg.c **** 
 352:Generated_Source\PSoC5/cyfitter_cfg.c **** 		static const cfg_memset_t CYCODE cfg_memset_list[] = {
 353:Generated_Source\PSoC5/cyfitter_cfg.c **** 			/* address, size */
 354:Generated_Source\PSoC5/cyfitter_cfg.c **** 			{(void CYFAR *)(CYREG_TMR0_CFG0), 12u},
 355:Generated_Source\PSoC5/cyfitter_cfg.c **** 			{(void CYFAR *)(CYREG_PRT3_DR), 64u},
 356:Generated_Source\PSoC5/cyfitter_cfg.c **** 			{(void CYFAR *)(CYREG_PRT15_DR), 16u},
 357:Generated_Source\PSoC5/cyfitter_cfg.c **** 			{(void CYFAR *)(CYDEV_UCFG_B0_P0_U0_BASE), 4096u},
 358:Generated_Source\PSoC5/cyfitter_cfg.c **** 			{(void CYFAR *)(CYDEV_UCFG_B1_P2_U0_BASE), 2048u},
 359:Generated_Source\PSoC5/cyfitter_cfg.c **** 			{(void CYFAR *)(CYDEV_UCFG_DSI0_BASE), 2560u},
 360:Generated_Source\PSoC5/cyfitter_cfg.c **** 			{(void CYFAR *)(CYDEV_UCFG_DSI12_BASE), 512u},
 361:Generated_Source\PSoC5/cyfitter_cfg.c **** 			{(void CYFAR *)(CYREG_BCTL0_MDCLK_EN), 32u},
 362:Generated_Source\PSoC5/cyfitter_cfg.c **** 		};
 363:Generated_Source\PSoC5/cyfitter_cfg.c **** 
 364:Generated_Source\PSoC5/cyfitter_cfg.c **** 		uint8 CYDATA i;
 365:Generated_Source\PSoC5/cyfitter_cfg.c **** 
 366:Generated_Source\PSoC5/cyfitter_cfg.c **** 		/* Zero out critical memory blocks before beginning configuration */
 367:Generated_Source\PSoC5/cyfitter_cfg.c **** 		for (i = 0u; i < (sizeof(cfg_memset_list)/sizeof(cfg_memset_list[0])); i++)
 347              		.loc 1 367 0
 348 000e 0024     		movs	r4, #0
 349 0010 0CE0     		b	.L21
 350              	.LVL21:
 351              	.L22:
 352              	.LBB4:
 368:Generated_Source\PSoC5/cyfitter_cfg.c **** 		{
 369:Generated_Source\PSoC5/cyfitter_cfg.c **** 			const cfg_memset_t CYCODE * CYDATA ms = &cfg_memset_list[i];
 370:Generated_Source\PSoC5/cyfitter_cfg.c **** 			CYMEMZERO(ms->address, (size_t)(uint32)(ms->size));
 353              		.loc 1 370 0 discriminator 3
 354 0012 2B4D     		ldr	r5, .L24+4
 355 0014 6300     		lsls	r3, r4, #1
 356 0016 1919     		adds	r1, r3, r4
 357 0018 4A00     		lsls	r2, r1, #1
 358 001a 1146     		mov	r1, r2
 359 001c 2A44     		add	r2, r2, r5
 360 001e 0846     		mov	r0, r1
 361 0020 9188     		ldrh	r1, [r2, #4]
 362 0022 2858     		ldr	r0, [r5, r0]	@ unaligned
 363 0024 FFF7FEFF 		bl	CYMEMZERO
 364              	.LVL22:
ARM GAS  C:\Users\lucas\AppData\Local\Temp\ccgdeSJX.s 			page 14


 365              	.LBE4:
 367:Generated_Source\PSoC5/cyfitter_cfg.c **** 		{
 366              		.loc 1 367 0 discriminator 3
 367 0028 0134     		adds	r4, r4, #1
 368              	.LVL23:
 369 002a E4B2     		uxtb	r4, r4
 370              	.LVL24:
 371              	.L21:
 367:Generated_Source\PSoC5/cyfitter_cfg.c **** 		{
 372              		.loc 1 367 0 is_stmt 0 discriminator 1
 373 002c 072C     		cmp	r4, #7
 374 002e F0D9     		bls	.L22
 371:Generated_Source\PSoC5/cyfitter_cfg.c **** 		}
 372:Generated_Source\PSoC5/cyfitter_cfg.c **** 
 373:Generated_Source\PSoC5/cyfitter_cfg.c **** 		cfg_write_bytes32(cy_cfg_addr_table, cy_cfg_data_table);
 375              		.loc 1 373 0 is_stmt 1
 376 0030 2449     		ldr	r1, .L24+8
 377 0032 4FF09040 		mov	r0, #1207959552
 378 0036 FFF7FEFF 		bl	cfg_write_bytes32
 379              	.LVL25:
 374:Generated_Source\PSoC5/cyfitter_cfg.c **** 
 375:Generated_Source\PSoC5/cyfitter_cfg.c **** 		/* Enable digital routing */
 376:Generated_Source\PSoC5/cyfitter_cfg.c **** 		CY_SET_XTND_REG8((void CYFAR *)CYREG_BCTL0_BANK_CTL, CY_GET_XTND_REG8((void CYFAR *)CYREG_BCTL0_B
 380              		.loc 1 376 0
 381 003a 234A     		ldr	r2, .L24+12
 382 003c 1378     		ldrb	r3, [r2]	@ zero_extendqisi2
 383 003e 43F00203 		orr	r3, r3, #2
 384 0042 1370     		strb	r3, [r2]
 377:Generated_Source\PSoC5/cyfitter_cfg.c **** 		CY_SET_XTND_REG8((void CYFAR *)CYREG_BCTL1_BANK_CTL, CY_GET_XTND_REG8((void CYFAR *)CYREG_BCTL1_B
 385              		.loc 1 377 0
 386 0044 1032     		adds	r2, r2, #16
 387 0046 1378     		ldrb	r3, [r2]	@ zero_extendqisi2
 388 0048 43F00203 		orr	r3, r3, #2
 389 004c 1370     		strb	r3, [r2]
 378:Generated_Source\PSoC5/cyfitter_cfg.c **** 
 379:Generated_Source\PSoC5/cyfitter_cfg.c **** 		/* Enable UDB array */
 380:Generated_Source\PSoC5/cyfitter_cfg.c **** 		CY_SET_XTND_REG8((void CYFAR *)CYREG_PM_ACT_CFG0, CY_GET_XTND_REG8((void CYFAR *)CYREG_PM_ACT_CFG
 390              		.loc 1 380 0
 391 004e 1F4C     		ldr	r4, .L24+16
 392              	.LVL26:
 393 0050 2378     		ldrb	r3, [r4]	@ zero_extendqisi2
 394 0052 43F04003 		orr	r3, r3, #64
 395 0056 2370     		strb	r3, [r4]
 381:Generated_Source\PSoC5/cyfitter_cfg.c **** 		CY_SET_XTND_REG8((void CYFAR *)CYREG_PM_AVAIL_CR2, CY_GET_XTND_REG8((void CYFAR *)CYREG_PM_AVAIL_
 396              		.loc 1 381 0
 397 0058 A2F58632 		sub	r2, r2, #68608
 398 005c 513A     		subs	r2, r2, #81
 399 005e 1378     		ldrb	r3, [r2]	@ zero_extendqisi2
 400 0060 43F01003 		orr	r3, r3, #16
 401 0064 1370     		strb	r3, [r2]
 402              	.LBE3:
 382:Generated_Source\PSoC5/cyfitter_cfg.c **** 	}
 383:Generated_Source\PSoC5/cyfitter_cfg.c **** 
 384:Generated_Source\PSoC5/cyfitter_cfg.c **** 
 385:Generated_Source\PSoC5/cyfitter_cfg.c **** 	/* Perform second pass device configuration. These items must be configured in specific order afte
 386:Generated_Source\PSoC5/cyfitter_cfg.c **** 	CYCONFIGCPY((void CYFAR *)(CYREG_PRT0_DM0), (const void CYFAR *)(BS_IOPINS0_0_VAL), 8u);
 403              		.loc 1 386 0
ARM GAS  C:\Users\lucas\AppData\Local\Temp\ccgdeSJX.s 			page 15


 404 0066 0822     		movs	r2, #8
 405 0068 1949     		ldr	r1, .L24+20
 406 006a 1A48     		ldr	r0, .L24+24
 407 006c FFF7FEFF 		bl	CYCONFIGCPY
 408              	.LVL27:
 387:Generated_Source\PSoC5/cyfitter_cfg.c **** 	CYCONFIGCPY((void CYFAR *)(CYREG_PRT12_DR), (const void CYFAR *)(BS_IOPINS0_7_VAL), 10u);
 409              		.loc 1 387 0
 410 0070 0A22     		movs	r2, #10
 411 0072 1949     		ldr	r1, .L24+28
 412 0074 1948     		ldr	r0, .L24+32
 413 0076 FFF7FEFF 		bl	CYCONFIGCPY
 414              	.LVL28:
 388:Generated_Source\PSoC5/cyfitter_cfg.c **** 	CYCONFIGCPY((void CYFAR *)(CYREG_PRT1_DM0), (const void CYFAR *)(BS_IOPINS0_1_VAL), 8u);
 415              		.loc 1 388 0
 416 007a 0822     		movs	r2, #8
 417 007c 1849     		ldr	r1, .L24+36
 418 007e 1948     		ldr	r0, .L24+40
 419 0080 FFF7FEFF 		bl	CYCONFIGCPY
 420              	.LVL29:
 389:Generated_Source\PSoC5/cyfitter_cfg.c **** 	CYCONFIGCPY((void CYFAR *)(CYREG_PRT2_DM0), (const void CYFAR *)(BS_IOPINS0_2_VAL), 8u);
 421              		.loc 1 389 0
 422 0084 0822     		movs	r2, #8
 423 0086 1849     		ldr	r1, .L24+44
 424 0088 1848     		ldr	r0, .L24+48
 425 008a FFF7FEFF 		bl	CYCONFIGCPY
 426              	.LVL30:
 390:Generated_Source\PSoC5/cyfitter_cfg.c **** 	/* Switch Boost to the precision bandgap reference from its internal reference */
 391:Generated_Source\PSoC5/cyfitter_cfg.c **** 	CY_SET_REG8((void CYXDATA *)CYREG_BOOST_CR2, (CY_GET_REG8((void CYXDATA *)CYREG_BOOST_CR2) | 0x08u
 427              		.loc 1 391 0
 428 008e 184A     		ldr	r2, .L24+52
 429 0090 1378     		ldrb	r3, [r2]	@ zero_extendqisi2
 430 0092 43F00803 		orr	r3, r3, #8
 431 0096 1370     		strb	r3, [r2]
 392:Generated_Source\PSoC5/cyfitter_cfg.c **** 
 393:Generated_Source\PSoC5/cyfitter_cfg.c **** 	/* Set Flash Cycles based on max possible frequency in case a glitch occurs during ClockSetup(). *
 394:Generated_Source\PSoC5/cyfitter_cfg.c **** 	CY_SET_XTND_REG8((void CYFAR *)(CYREG_CACHE_CC_CTL), (((CYDEV_INSTRUCT_CACHE_ENABLED) != 0) ? 0x61
 432              		.loc 1 394 0
 433 0098 164D     		ldr	r5, .L24+56
 434 009a 6123     		movs	r3, #97
 435 009c 2B70     		strb	r3, [r5]
 395:Generated_Source\PSoC5/cyfitter_cfg.c **** 	/* Setup clocks based on selections from Clock DWR */
 396:Generated_Source\PSoC5/cyfitter_cfg.c **** 	ClockSetup();
 436              		.loc 1 396 0
 437 009e FFF7FEFF 		bl	ClockSetup
 438              	.LVL31:
 397:Generated_Source\PSoC5/cyfitter_cfg.c **** 	/* Set Flash Cycles based on newly configured 48.00MHz Bus Clock. */
 398:Generated_Source\PSoC5/cyfitter_cfg.c **** 	CY_SET_XTND_REG8((void CYFAR *)(CYREG_CACHE_CC_CTL), (((CYDEV_INSTRUCT_CACHE_ENABLED) != 0) ? 0xC1
 439              		.loc 1 398 0
 440 00a2 C123     		movs	r3, #193
 441 00a4 2B70     		strb	r3, [r5]
 399:Generated_Source\PSoC5/cyfitter_cfg.c **** 	CY_SET_XTND_REG8((void CYFAR *)(CYREG_PANTHER_WAITPIPE), 0x01u);
 442              		.loc 1 399 0
 443 00a6 0122     		movs	r2, #1
 444 00a8 134B     		ldr	r3, .L24+60
 445 00aa 1A70     		strb	r2, [r3]
 400:Generated_Source\PSoC5/cyfitter_cfg.c **** 
 401:Generated_Source\PSoC5/cyfitter_cfg.c **** 	/* Perform basic analog initialization to defaults */
ARM GAS  C:\Users\lucas\AppData\Local\Temp\ccgdeSJX.s 			page 16


 402:Generated_Source\PSoC5/cyfitter_cfg.c **** 	AnalogSetDefault();
 446              		.loc 1 402 0
 447 00ac FFF7FEFF 		bl	AnalogSetDefault
 448              	.LVL32:
 403:Generated_Source\PSoC5/cyfitter_cfg.c **** 
 404:Generated_Source\PSoC5/cyfitter_cfg.c **** 	/* Configure alternate active mode */
 405:Generated_Source\PSoC5/cyfitter_cfg.c **** 	CYCONFIGCPY((void CYFAR *)CYDEV_PM_STBY_BASE, (const void CYFAR *)CYDEV_PM_ACT_BASE, 14u);
 449              		.loc 1 405 0
 450 00b0 0E22     		movs	r2, #14
 451 00b2 2146     		mov	r1, r4
 452 00b4 1148     		ldr	r0, .L24+64
 453 00b6 FFF7FEFF 		bl	CYCONFIGCPY
 454              	.LVL33:
 455 00ba 38BD     		pop	{r3, r4, r5, pc}
 456              	.L25:
 457              		.align	2
 458              	.L24:
 459 00bc E8460040 		.word	1073759976
 460 00c0 00000000 		.word	.LANCHOR0
 461 00c4 78000048 		.word	1207959672
 462 00c8 03500140 		.word	1073827843
 463 00cc A0430040 		.word	1073759136
 464 00d0 50050048 		.word	1207960912
 465 00d4 02510040 		.word	1073762562
 466 00d8 58050048 		.word	1207960920
 467 00dc C0510040 		.word	1073762752
 468 00e0 64050048 		.word	1207960932
 469 00e4 12510040 		.word	1073762578
 470 00e8 6C050048 		.word	1207960940
 471 00ec 22510040 		.word	1073762594
 472 00f0 22430040 		.word	1073759010
 473 00f4 00480040 		.word	1073760256
 474 00f8 04000840 		.word	1074266116
 475 00fc B0430040 		.word	1073759152
 476              		.cfi_endproc
 477              	.LFE7:
 478              		.size	cyfitter_cfg, .-cyfitter_cfg
 479              		.section	.rodata
 480              		.align	2
 481              		.set	.LANCHOR0,. + 0
 482              		.type	cfg_memset_list.5002, %object
 483              		.size	cfg_memset_list.5002, 48
 484              	cfg_memset_list.5002:
 485 0000 004F0040 		.word	1073762048
 486 0004 0C00     		.short	12
 487 0006 30510040 		.4byte	1073762608
 488 000a 4000     		.short	64
 489 000c F0510040 		.word	1073762800
 490 0010 1000     		.short	16
 491 0012 00000140 		.4byte	1073807360
 492 0016 0010     		.short	4096
 493 0018 00140140 		.word	1073812480
 494 001c 0008     		.short	2048
 495 001e 00400140 		.4byte	1073823744
 496 0022 000A     		.short	2560
 497 0024 004C0140 		.word	1073826816
 498 0028 0002     		.short	512
ARM GAS  C:\Users\lucas\AppData\Local\Temp\ccgdeSJX.s 			page 17


 499 002a 00500140 		.4byte	1073827840
 500 002e 2000     		.short	32
 501              		.text
 502              	.Letext0:
 503              		.file 2 "c:\\program files (x86)\\cypress\\psoc creator\\4.2\\psoc creator\\import\\gnu\\arm\\5.4.
 504              		.file 3 "Generated_Source\\PSoC5\\cytypes.h"