ARM GAS  C:\Users\lucas\AppData\Local\Temp\ccBow2N5.s 			page 1


   1              		.syntax unified
   2              		.cpu cortex-m3
   3              		.fpu softvfp
   4              		.eabi_attribute 20, 1
   5              		.eabi_attribute 21, 1
   6              		.eabi_attribute 23, 3
   7              		.eabi_attribute 24, 1
   8              		.eabi_attribute 25, 1
   9              		.eabi_attribute 26, 1
  10              		.eabi_attribute 30, 1
  11              		.eabi_attribute 34, 1
  12              		.eabi_attribute 18, 4
  13              		.thumb
  14              		.syntax unified
  15              		.file	"main.c"
  16              		.text
  17              	.Ltext0:
  18              		.cfi_sections	.debug_frame
  19              		.section	.text.matchPhotonInterrupt_1,"ax",%progbits
  20              		.align	2
  21              		.global	matchPhotonInterrupt_1
  22              		.thumb
  23              		.thumb_func
  24              		.type	matchPhotonInterrupt_1, %function
  25              	matchPhotonInterrupt_1:
  26              	.LFB63:
  27              		.file 1 "main.c"
   1:main.c        **** /* ========================================
   2:main.c        ****  *
   3:main.c        ****  * Copyright YOUR COMPANY, THE YEAR
   4:main.c        ****  * All Rights Reserved
   5:main.c        ****  * UNPUBLISHED, LICENSED SOFTWARE.
   6:main.c        ****  *
   7:main.c        ****  * CONFIDENTIAL AND PROPRIETARY INFORMATION
   8:main.c        ****  * WHICH IS THE PROPERTY OF your company.
   9:main.c        ****  *
  10:main.c        ****  * ========================================
  11:main.c        **** */
  12:main.c        **** #include "project.h"
  13:main.c        **** 
  14:main.c        **** volatile uint8_t samplerInput;
  15:main.c        **** 
  16:main.c        **** // -----------------------------------------------------------------------------
  17:main.c        **** //matchCounterControl_Reg_1
  18:main.c        **** #define OFF_COMMAND 0
  19:main.c        **** #define ON_COMMAND 0b00000011  
  20:main.c        **** #define RESET_COMMAND 0b00000100 
  21:main.c        **** 
  22:main.c        **** // -----------------------------------------------------------------------------
  23:main.c        **** // State Machine ---------------------------------------------------------------
  24:main.c        **** void exit_state_process();//0
  25:main.c        **** void start_state_process();//1
  26:main.c        **** void standby_state_process();//2
  27:main.c        **** void scanOn_state_process();//3
  28:main.c        **** void scanOff_state_process();//4
  29:main.c        **** void sampler_state_process();//5
  30:main.c        **** void setRegs_state_process();//6
ARM GAS  C:\Users\lucas\AppData\Local\Temp\ccBow2N5.s 			page 2


  31:main.c        **** 
  32:main.c        **** //Estado comum a todas as máquinas de estado:
  33:main.c        **** #define EXIT_STATE 0
  34:main.c        **** #define START_STATE 1
  35:main.c        **** #define STANDBY_STATE 2
  36:main.c        **** #define SCANON_STATE 3
  37:main.c        **** #define SCANOFF_STATE 4
  38:main.c        **** #define SAMPLER_STATE 5
  39:main.c        **** #define SETREGS_STATE 6
  40:main.c        **** 
  41:main.c        **** void (*main_state_table[])()=
  42:main.c        **** {
  43:main.c        ****     exit_state_process,//0
  44:main.c        ****     start_state_process,//1
  45:main.c        ****     standby_state_process,//2
  46:main.c        ****     scanOn_state_process,//3
  47:main.c        ****     scanOff_state_process,//4
  48:main.c        ****     sampler_state_process,//5
  49:main.c        ****     setRegs_state_process//6
  50:main.c        **** };
  51:main.c        **** 
  52:main.c        **** volatile int main_state;
  53:main.c        **** 
  54:main.c        **** CY_ISR(matchPhotonInterrupt_1)
  55:main.c        **** {	
  28              		.loc 1 55 0
  29              		.cfi_startproc
  30              		@ args = 0, pretend = 0, frame = 0
  31              		@ frame_needed = 0, uses_anonymous_args = 0
  32              		@ link register save eliminated.
  56:main.c        ****     main_state =  SAMPLER_STATE;
  33              		.loc 1 56 0
  34 0000 0522     		movs	r2, #5
  35 0002 014B     		ldr	r3, .L2
  36 0004 1A60     		str	r2, [r3]
  37 0006 7047     		bx	lr
  38              	.L3:
  39              		.align	2
  40              	.L2:
  41 0008 00000000 		.word	main_state
  42              		.cfi_endproc
  43              	.LFE63:
  44              		.size	matchPhotonInterrupt_1, .-matchPhotonInterrupt_1
  45              		.section	.text.standby_state_process,"ax",%progbits
  46              		.align	2
  47              		.global	standby_state_process
  48              		.thumb
  49              		.thumb_func
  50              		.type	standby_state_process, %function
  51              	standby_state_process:
  52              	.LFB68:
  57:main.c        ****     //isr_matchPhoton_1_ClearPending();
  58:main.c        **** }
  59:main.c        **** 
  60:main.c        **** CY_ISR(RxInterrupt_1)
  61:main.c        **** {	
  62:main.c        ****     main_state = UART_1_GetChar()-48;
ARM GAS  C:\Users\lucas\AppData\Local\Temp\ccBow2N5.s 			page 3


  63:main.c        **** }
  64:main.c        **** 
  65:main.c        **** int main(void)
  66:main.c        **** {
  67:main.c        ****     CyGlobalIntEnable; /* Enable global interrupts. */
  68:main.c        **** 
  69:main.c        ****     UART_1_Start();
  70:main.c        ****     
  71:main.c        ****     /* Place your initialization/startup code here (e.g. MyInst_Start()) */
  72:main.c        ****     
  73:main.c        ****     isr_Rx_1_StartEx(RxInterrupt_1);
  74:main.c        ****     isr_matchPhoton_1_StartEx(matchPhotonInterrupt_1);
  75:main.c        ****     isr_matchPhoton_1_Disable();
  76:main.c        ****     samplerInput = 0;
  77:main.c        ****     matchCounterControl_Reg_1_Write(0x00);
  78:main.c        ****     
  79:main.c        ****     PWM_1_Start();
  80:main.c        ****     
  81:main.c        ****     while(1)
  82:main.c        ****     {
  83:main.c        ****         main_state = START_STATE;
  84:main.c        ****         while(main_state)
  85:main.c        ****         {       
  86:main.c        ****             main_state_table[main_state]();
  87:main.c        ****         }
  88:main.c        ****     }
  89:main.c        **** }
  90:main.c        **** 
  91:main.c        **** //        if(samplerInput)
  92:main.c        **** //        {          
  93:main.c        **** //            UART_1_PutChar((char)(samplerInput+48));
  94:main.c        **** //            UART_1_PutChar('\n');
  95:main.c        **** //            samplerInput = 0;
  96:main.c        **** //        }
  97:main.c        **** /* [] END OF FILE */
  98:main.c        **** 
  99:main.c        **** void exit_state_process()//0
 100:main.c        **** {
 101:main.c        ****     matchCounterControl_Reg_1_Write(0x00);
 102:main.c        ****     isr_matchPhoton_1_Disable();
 103:main.c        **** }
 104:main.c        **** 
 105:main.c        **** void start_state_process()//1
 106:main.c        **** {
 107:main.c        ****     
 108:main.c        ****     main_state = STANDBY_STATE;
 109:main.c        ****     count_th_Reg_1_Write(255);
 110:main.c        **** }
 111:main.c        **** 
 112:main.c        **** void standby_state_process()//2
 113:main.c        **** {
  53              		.loc 1 113 0
  54              		.cfi_startproc
  55              		@ args = 0, pretend = 0, frame = 0
  56              		@ frame_needed = 0, uses_anonymous_args = 0
  57              		@ link register save eliminated.
  58 0000 7047     		bx	lr
ARM GAS  C:\Users\lucas\AppData\Local\Temp\ccBow2N5.s 			page 4


  59              		.cfi_endproc
  60              	.LFE68:
  61              		.size	standby_state_process, .-standby_state_process
  62 0002 00BF     		.section	.text.RxInterrupt_1,"ax",%progbits
  63              		.align	2
  64              		.global	RxInterrupt_1
  65              		.thumb
  66              		.thumb_func
  67              		.type	RxInterrupt_1, %function
  68              	RxInterrupt_1:
  69              	.LFB64:
  61:main.c        ****     main_state = UART_1_GetChar()-48;
  70              		.loc 1 61 0
  71              		.cfi_startproc
  72              		@ args = 0, pretend = 0, frame = 0
  73              		@ frame_needed = 0, uses_anonymous_args = 0
  61:main.c        ****     main_state = UART_1_GetChar()-48;
  74              		.loc 1 61 0
  75 0000 08B5     		push	{r3, lr}
  76              		.cfi_def_cfa_offset 8
  77              		.cfi_offset 3, -8
  78              		.cfi_offset 14, -4
  62:main.c        **** }
  79              		.loc 1 62 0
  80 0002 FFF7FEFF 		bl	UART_1_GetChar
  81              	.LVL0:
  82 0006 3038     		subs	r0, r0, #48
  83 0008 014B     		ldr	r3, .L7
  84 000a 1860     		str	r0, [r3]
  85 000c 08BD     		pop	{r3, pc}
  86              	.L8:
  87 000e 00BF     		.align	2
  88              	.L7:
  89 0010 00000000 		.word	main_state
  90              		.cfi_endproc
  91              	.LFE64:
  92              		.size	RxInterrupt_1, .-RxInterrupt_1
  93              		.section	.text.exit_state_process,"ax",%progbits
  94              		.align	2
  95              		.global	exit_state_process
  96              		.thumb
  97              		.thumb_func
  98              		.type	exit_state_process, %function
  99              	exit_state_process:
 100              	.LFB66:
 100:main.c        ****     matchCounterControl_Reg_1_Write(0x00);
 101              		.loc 1 100 0
 102              		.cfi_startproc
 103              		@ args = 0, pretend = 0, frame = 0
 104              		@ frame_needed = 0, uses_anonymous_args = 0
 105 0000 08B5     		push	{r3, lr}
 106              		.cfi_def_cfa_offset 8
 107              		.cfi_offset 3, -8
 108              		.cfi_offset 14, -4
 101:main.c        ****     isr_matchPhoton_1_Disable();
 109              		.loc 1 101 0
 110 0002 0020     		movs	r0, #0
ARM GAS  C:\Users\lucas\AppData\Local\Temp\ccBow2N5.s 			page 5


 111 0004 FFF7FEFF 		bl	matchCounterControl_Reg_1_Write
 112              	.LVL1:
 102:main.c        **** }
 113              		.loc 1 102 0
 114 0008 FFF7FEFF 		bl	isr_matchPhoton_1_Disable
 115              	.LVL2:
 116 000c 08BD     		pop	{r3, pc}
 117              		.cfi_endproc
 118              	.LFE66:
 119              		.size	exit_state_process, .-exit_state_process
 120 000e 00BF     		.section	.text.scanOff_state_process,"ax",%progbits
 121              		.align	2
 122              		.global	scanOff_state_process
 123              		.thumb
 124              		.thumb_func
 125              		.type	scanOff_state_process, %function
 126              	scanOff_state_process:
 127              	.LFB70:
 114:main.c        ****     
 115:main.c        **** }
 116:main.c        **** 
 117:main.c        **** void scanOn_state_process()//4
 118:main.c        **** {
 119:main.c        ****     main_state = STANDBY_STATE;
 120:main.c        ****     isr_matchPhoton_1_Enable();
 121:main.c        ****     matchCounterControl_Reg_1_Write(RESET_COMMAND);
 122:main.c        ****     matchCounterControl_Reg_1_Write(ON_COMMAND);
 123:main.c        **** }
 124:main.c        **** 
 125:main.c        **** void scanOff_state_process()//5
 126:main.c        **** {
 128              		.loc 1 126 0
 129              		.cfi_startproc
 130              		@ args = 0, pretend = 0, frame = 0
 131              		@ frame_needed = 0, uses_anonymous_args = 0
 132 0000 08B5     		push	{r3, lr}
 133              		.cfi_def_cfa_offset 8
 134              		.cfi_offset 3, -8
 135              		.cfi_offset 14, -4
 127:main.c        ****     main_state = STANDBY_STATE;
 136              		.loc 1 127 0
 137 0002 0222     		movs	r2, #2
 138 0004 034B     		ldr	r3, .L13
 139 0006 1A60     		str	r2, [r3]
 128:main.c        ****     isr_matchPhoton_1_Disable();
 140              		.loc 1 128 0
 141 0008 FFF7FEFF 		bl	isr_matchPhoton_1_Disable
 142              	.LVL3:
 129:main.c        ****     matchCounterControl_Reg_1_Write(OFF_COMMAND);
 143              		.loc 1 129 0
 144 000c 0020     		movs	r0, #0
 145 000e FFF7FEFF 		bl	matchCounterControl_Reg_1_Write
 146              	.LVL4:
 147 0012 08BD     		pop	{r3, pc}
 148              	.L14:
 149              		.align	2
 150              	.L13:
ARM GAS  C:\Users\lucas\AppData\Local\Temp\ccBow2N5.s 			page 6


 151 0014 00000000 		.word	main_state
 152              		.cfi_endproc
 153              	.LFE70:
 154              		.size	scanOff_state_process, .-scanOff_state_process
 155              		.section	.text.start_state_process,"ax",%progbits
 156              		.align	2
 157              		.global	start_state_process
 158              		.thumb
 159              		.thumb_func
 160              		.type	start_state_process, %function
 161              	start_state_process:
 162              	.LFB67:
 106:main.c        ****     
 163              		.loc 1 106 0
 164              		.cfi_startproc
 165              		@ args = 0, pretend = 0, frame = 0
 166              		@ frame_needed = 0, uses_anonymous_args = 0
 167 0000 08B5     		push	{r3, lr}
 168              		.cfi_def_cfa_offset 8
 169              		.cfi_offset 3, -8
 170              		.cfi_offset 14, -4
 108:main.c        ****     count_th_Reg_1_Write(255);
 171              		.loc 1 108 0
 172 0002 0222     		movs	r2, #2
 173 0004 024B     		ldr	r3, .L17
 174 0006 1A60     		str	r2, [r3]
 109:main.c        **** }
 175              		.loc 1 109 0
 176 0008 FF20     		movs	r0, #255
 177 000a FFF7FEFF 		bl	count_th_Reg_1_Write
 178              	.LVL5:
 179 000e 08BD     		pop	{r3, pc}
 180              	.L18:
 181              		.align	2
 182              	.L17:
 183 0010 00000000 		.word	main_state
 184              		.cfi_endproc
 185              	.LFE67:
 186              		.size	start_state_process, .-start_state_process
 187              		.section	.text.setRegs_state_process,"ax",%progbits
 188              		.align	2
 189              		.global	setRegs_state_process
 190              		.thumb
 191              		.thumb_func
 192              		.type	setRegs_state_process, %function
 193              	setRegs_state_process:
 194              	.LFB72:
 130:main.c        **** }
 131:main.c        **** 
 132:main.c        **** void sampler_state_process()//5
 133:main.c        **** {
 134:main.c        ****     main_state = STANDBY_STATE;
 135:main.c        ****     samplerInput = NMatch_Reg_1_Read() - 128;
 136:main.c        ****     UART_1_WriteTxData(samplerInput);
 137:main.c        ****     //UART_1_PutChar((char)(samplerInput));
 138:main.c        **** }
 139:main.c        **** 
ARM GAS  C:\Users\lucas\AppData\Local\Temp\ccBow2N5.s 			page 7


 140:main.c        **** void setRegs_state_process()//6
 141:main.c        **** {
 195              		.loc 1 141 0
 196              		.cfi_startproc
 197              		@ args = 0, pretend = 0, frame = 0
 198              		@ frame_needed = 0, uses_anonymous_args = 0
 199              	.L20:
 142:main.c        ****     while(main_state==SETREGS_STATE){}
 200              		.loc 1 142 0 discriminator 1
 201 0000 064B     		ldr	r3, .L22
 202 0002 1B68     		ldr	r3, [r3]
 203 0004 062B     		cmp	r3, #6
 204 0006 FBD0     		beq	.L20
 141:main.c        ****     while(main_state==SETREGS_STATE){}
 205              		.loc 1 141 0
 206 0008 10B5     		push	{r4, lr}
 207              		.cfi_def_cfa_offset 8
 208              		.cfi_offset 4, -8
 209              		.cfi_offset 14, -4
 143:main.c        ****     count_th_Reg_1_Write(main_state+47);
 210              		.loc 1 143 0
 211 000a 044C     		ldr	r4, .L22
 212 000c 2068     		ldr	r0, [r4]
 213 000e 2F30     		adds	r0, r0, #47
 214 0010 C0B2     		uxtb	r0, r0
 215 0012 FFF7FEFF 		bl	count_th_Reg_1_Write
 216              	.LVL6:
 144:main.c        ****     main_state = STANDBY_STATE;    
 217              		.loc 1 144 0
 218 0016 0223     		movs	r3, #2
 219 0018 2360     		str	r3, [r4]
 220 001a 10BD     		pop	{r4, pc}
 221              	.L23:
 222              		.align	2
 223              	.L22:
 224 001c 00000000 		.word	main_state
 225              		.cfi_endproc
 226              	.LFE72:
 227              		.size	setRegs_state_process, .-setRegs_state_process
 228              		.section	.text.scanOn_state_process,"ax",%progbits
 229              		.align	2
 230              		.global	scanOn_state_process
 231              		.thumb
 232              		.thumb_func
 233              		.type	scanOn_state_process, %function
 234              	scanOn_state_process:
 235              	.LFB69:
 118:main.c        ****     main_state = STANDBY_STATE;
 236              		.loc 1 118 0
 237              		.cfi_startproc
 238              		@ args = 0, pretend = 0, frame = 0
 239              		@ frame_needed = 0, uses_anonymous_args = 0
 240 0000 08B5     		push	{r3, lr}
 241              		.cfi_def_cfa_offset 8
 242              		.cfi_offset 3, -8
 243              		.cfi_offset 14, -4
 119:main.c        ****     isr_matchPhoton_1_Enable();
ARM GAS  C:\Users\lucas\AppData\Local\Temp\ccBow2N5.s 			page 8


 244              		.loc 1 119 0
 245 0002 0222     		movs	r2, #2
 246 0004 054B     		ldr	r3, .L26
 247 0006 1A60     		str	r2, [r3]
 120:main.c        ****     matchCounterControl_Reg_1_Write(RESET_COMMAND);
 248              		.loc 1 120 0
 249 0008 FFF7FEFF 		bl	isr_matchPhoton_1_Enable
 250              	.LVL7:
 121:main.c        ****     matchCounterControl_Reg_1_Write(ON_COMMAND);
 251              		.loc 1 121 0
 252 000c 0420     		movs	r0, #4
 253 000e FFF7FEFF 		bl	matchCounterControl_Reg_1_Write
 254              	.LVL8:
 122:main.c        **** }
 255              		.loc 1 122 0
 256 0012 0320     		movs	r0, #3
 257 0014 FFF7FEFF 		bl	matchCounterControl_Reg_1_Write
 258              	.LVL9:
 259 0018 08BD     		pop	{r3, pc}
 260              	.L27:
 261 001a 00BF     		.align	2
 262              	.L26:
 263 001c 00000000 		.word	main_state
 264              		.cfi_endproc
 265              	.LFE69:
 266              		.size	scanOn_state_process, .-scanOn_state_process
 267              		.section	.text.sampler_state_process,"ax",%progbits
 268              		.align	2
 269              		.global	sampler_state_process
 270              		.thumb
 271              		.thumb_func
 272              		.type	sampler_state_process, %function
 273              	sampler_state_process:
 274              	.LFB71:
 133:main.c        ****     main_state = STANDBY_STATE;
 275              		.loc 1 133 0
 276              		.cfi_startproc
 277              		@ args = 0, pretend = 0, frame = 0
 278              		@ frame_needed = 0, uses_anonymous_args = 0
 279 0000 08B5     		push	{r3, lr}
 280              		.cfi_def_cfa_offset 8
 281              		.cfi_offset 3, -8
 282              		.cfi_offset 14, -4
 134:main.c        ****     samplerInput = NMatch_Reg_1_Read() - 128;
 283              		.loc 1 134 0
 284 0002 0222     		movs	r2, #2
 285 0004 054B     		ldr	r3, .L30
 286 0006 1A60     		str	r2, [r3]
 135:main.c        ****     UART_1_WriteTxData(samplerInput);
 287              		.loc 1 135 0
 288 0008 FFF7FEFF 		bl	NMatch_Reg_1_Read
 289              	.LVL10:
 290 000c 8038     		subs	r0, r0, #128
 291 000e C0B2     		uxtb	r0, r0
 292 0010 034B     		ldr	r3, .L30+4
 293 0012 1870     		strb	r0, [r3]
 136:main.c        ****     //UART_1_PutChar((char)(samplerInput));
ARM GAS  C:\Users\lucas\AppData\Local\Temp\ccBow2N5.s 			page 9


 294              		.loc 1 136 0
 295 0014 1878     		ldrb	r0, [r3]	@ zero_extendqisi2
 296 0016 FFF7FEFF 		bl	UART_1_WriteTxData
 297              	.LVL11:
 298 001a 08BD     		pop	{r3, pc}
 299              	.L31:
 300              		.align	2
 301              	.L30:
 302 001c 00000000 		.word	main_state
 303 0020 00000000 		.word	samplerInput
 304              		.cfi_endproc
 305              	.LFE71:
 306              		.size	sampler_state_process, .-sampler_state_process
 307              		.section	.text.main,"ax",%progbits
 308              		.align	2
 309              		.global	main
 310              		.thumb
 311              		.thumb_func
 312              		.type	main, %function
 313              	main:
 314              	.LFB65:
  66:main.c        ****     CyGlobalIntEnable; /* Enable global interrupts. */
 315              		.loc 1 66 0
 316              		.cfi_startproc
 317              		@ Volatile: function does not return.
 318              		@ args = 0, pretend = 0, frame = 0
 319              		@ frame_needed = 0, uses_anonymous_args = 0
 320 0000 08B5     		push	{r3, lr}
 321              		.cfi_def_cfa_offset 8
 322              		.cfi_offset 3, -8
 323              		.cfi_offset 14, -4
  67:main.c        **** 
 324              		.loc 1 67 0
 325              		.syntax unified
 326              	@ 67 "main.c" 1
 327 0002 62B6     		CPSIE   i
 328              	@ 0 "" 2
  69:main.c        ****     
 329              		.loc 1 69 0
 330              		.thumb
 331              		.syntax unified
 332 0004 FFF7FEFF 		bl	UART_1_Start
 333              	.LVL12:
  73:main.c        ****     isr_matchPhoton_1_StartEx(matchPhotonInterrupt_1);
 334              		.loc 1 73 0
 335 0008 0E48     		ldr	r0, .L37
 336 000a FFF7FEFF 		bl	isr_Rx_1_StartEx
 337              	.LVL13:
  74:main.c        ****     isr_matchPhoton_1_Disable();
 338              		.loc 1 74 0
 339 000e 0E48     		ldr	r0, .L37+4
 340 0010 FFF7FEFF 		bl	isr_matchPhoton_1_StartEx
 341              	.LVL14:
  75:main.c        ****     samplerInput = 0;
 342              		.loc 1 75 0
 343 0014 FFF7FEFF 		bl	isr_matchPhoton_1_Disable
 344              	.LVL15:
ARM GAS  C:\Users\lucas\AppData\Local\Temp\ccBow2N5.s 			page 10


  76:main.c        ****     matchCounterControl_Reg_1_Write(0x00);
 345              		.loc 1 76 0
 346 0018 0020     		movs	r0, #0
 347 001a 0C4B     		ldr	r3, .L37+8
 348 001c 1870     		strb	r0, [r3]
  77:main.c        ****     
 349              		.loc 1 77 0
 350 001e FFF7FEFF 		bl	matchCounterControl_Reg_1_Write
 351              	.LVL16:
  79:main.c        ****     
 352              		.loc 1 79 0
 353 0022 FFF7FEFF 		bl	PWM_1_Start
 354              	.LVL17:
 355              	.L35:
  83:main.c        ****         while(main_state)
 356              		.loc 1 83 0
 357 0026 0122     		movs	r2, #1
 358 0028 094B     		ldr	r3, .L37+12
 359 002a 1A60     		str	r2, [r3]
  84:main.c        ****         {       
 360              		.loc 1 84 0
 361 002c 05E0     		b	.L33
 362              	.L34:
  86:main.c        ****         }
 363              		.loc 1 86 0
 364 002e 084B     		ldr	r3, .L37+12
 365 0030 1A68     		ldr	r2, [r3]
 366 0032 084B     		ldr	r3, .L37+16
 367 0034 53F82230 		ldr	r3, [r3, r2, lsl #2]
 368 0038 9847     		blx	r3
 369              	.LVL18:
 370              	.L33:
  84:main.c        ****         {       
 371              		.loc 1 84 0
 372 003a 054B     		ldr	r3, .L37+12
 373 003c 1B68     		ldr	r3, [r3]
 374 003e 002B     		cmp	r3, #0
 375 0040 F5D1     		bne	.L34
 376 0042 F0E7     		b	.L35
 377              	.L38:
 378              		.align	2
 379              	.L37:
 380 0044 00000000 		.word	RxInterrupt_1
 381 0048 00000000 		.word	matchPhotonInterrupt_1
 382 004c 00000000 		.word	samplerInput
 383 0050 00000000 		.word	main_state
 384 0054 00000000 		.word	.LANCHOR0
 385              		.cfi_endproc
 386              	.LFE65:
 387              		.size	main, .-main
 388              		.comm	main_state,4,4
 389              		.global	main_state_table
 390              		.comm	samplerInput,1,1
 391              		.data
 392              		.align	2
 393              		.set	.LANCHOR0,. + 0
 394              		.type	main_state_table, %object
ARM GAS  C:\Users\lucas\AppData\Local\Temp\ccBow2N5.s 			page 11


 395              		.size	main_state_table, 28
 396              	main_state_table:
 397 0000 00000000 		.word	exit_state_process
 398 0004 00000000 		.word	start_state_process
 399 0008 00000000 		.word	standby_state_process
 400 000c 00000000 		.word	scanOn_state_process
 401 0010 00000000 		.word	scanOff_state_process
 402 0014 00000000 		.word	sampler_state_process
 403 0018 00000000 		.word	setRegs_state_process
 404              		.text
 405              	.Letext0:
 406              		.file 2 "c:\\program files (x86)\\cypress\\psoc creator\\4.2\\psoc creator\\import\\gnu\\arm\\5.4.
 407              		.file 3 "c:\\program files (x86)\\cypress\\psoc creator\\4.2\\psoc creator\\import\\gnu\\arm\\5.4.
 408              		.file 4 "Generated_Source\\PSoC5/core_cm3.h"
 409              		.file 5 "Generated_Source\\PSoC5/UART_1.h"
 410              		.file 6 "Generated_Source\\PSoC5/matchCounterControl_Reg_1.h"
 411              		.file 7 "Generated_Source\\PSoC5/isr_matchPhoton_1.h"
 412              		.file 8 "Generated_Source\\PSoC5/count_th_Reg_1.h"
 413              		.file 9 "Generated_Source\\PSoC5/NMatch_Reg_1.h"
 414              		.file 10 "Generated_Source\\PSoC5/isr_Rx_1.h"
 415              		.file 11 "Generated_Source\\PSoC5/PWM_1.h"